
Allocating common symbols
Common symbol       size              file

netbufpool          0x4               binaries/net.o
readylist           0x2               binaries/ready.o
rfltab              0x5a0             binaries/rflinit.o
sleepq              0x2               binaries/clkinit.o
nnames              0x4               binaries/naminit.o
udptab              0x168             binaries/udp.o
minheap             0x4               binaries/meminit.o
marks               0x50              binaries/mark.o
currpid             0x4               binaries/initialize.o
Lf_data             0x20c             binaries/lfsinit.o
porttab             0x2d0             binaries/ptinit.o
girmask             0x2               binaries/evec.o
ttytab              0x10c             binaries/ttyinit.o
proctab             0x1770            binaries/initialize.o
prcount             0x4               binaries/initialize.o
ebp                 0x4               binaries/stackdepth.o
lfltab              0xf00             binaries/lflinit.o
rdstab              0x8c              binaries/rdsinit.o
ethertab            0x138             binaries/ethinit.o
NetData             0xa8              binaries/net.o
nmarks              0x4               binaries/mark.o
Defer               0x8               binaries/resched.o
semtab              0x4b0             binaries/initialize.o
maxheap             0x4               binaries/meminit.o
preempt             0x4               binaries/clkinit.o
buftab              0xf0              binaries/bufinit.o
Rf_data             0x18              binaries/rfsinit.o
clktimefine         0x4               binaries/clkinit.o
mkmutex             0x4               binaries/mark.o
clktime             0x4               binaries/clkinit.o
arpcache            0x140             binaries/arp.o
icmptab             0x230             binaries/icmp.o
nbpools             0x4               binaries/bufinit.o
queuetab            0x980             binaries/queue.o
esp                 0x4               binaries/stackdepth.o
ptnextid            0x4               binaries/ptinit.o
Ram                 0x19000           binaries/raminit.o
ipoqueue            0x2c              binaries/ip.o
memlist             0x8               binaries/initialize.o
nametab             0x19a0            binaries/naminit.o
ptfree              0x4               binaries/ptinit.o

Memory Configuration

Name             Origin             Length             Attributes
*default*        0x0000000000000000 0xffffffffffffffff

Linker script and memory map

                0x0000000000100000                physbase = 0x100000
                0x0000000000100000                . = physbase
                0x0000000000100000                . = ALIGN (0x1000)

.text           0x0000000000100000    0x16000
                0x0000000000100000                text = ABSOLUTE (.)
 *(.text .text.*)
 .text          0x0000000000100000      0x1ac binaries/start.o
                0x0000000000100028                start
                0x00000000001000fa                inb
                0x0000000000100102                inw
                0x000000000010010b                inl
                0x0000000000100113                outb
                0x000000000010011d                outw
                0x0000000000100128                outl
                0x0000000000100132                _rtcin
                0x000000000010013d                ___udivsi3
                0x0000000000100148                ___divsi3
                0x0000000000100154                sbzero
                0x0000000000100164                bcopy
                0x0000000000100178                insw
                0x000000000010018e                outsw
                0x00000000001001a4                lidt
 .text          0x00000000001001ac      0x2df binaries/ascdate.o
                0x00000000001001ac                ascdate
 .text          0x000000000010048b       0x14 binaries/bufinit.o
                0x000000000010048b                bufinit
 .text          0x000000000010049f       0x6c binaries/chprio.o
                0x000000000010049f                chprio
 .text          0x000000000010050b       0x8f binaries/clkhandler.o
                0x000000000010050b                clkhandler
 .text          0x000000000010059a       0x81 binaries/clkinit.o
                0x000000000010059a                clkinit
 .text          0x000000000010061b       0x51 binaries/close.o
                0x000000000010061b                close
 .text          0x000000000010066c        0x0 binaries/conf.o
 .text          0x000000000010066c       0x66 binaries/control.o
                0x000000000010066c                control
 .text          0x00000000001006d2       0x8d binaries/cpuintensive.o
                0x00000000001006d2                cpuintensive
 .text          0x000000000010075f      0x206 binaries/create.o
                0x000000000010075f                create
 .text          0x0000000000100965      0x2bb binaries/early_imr.o
                0x0000000000100965                intel_cln_early_sb_read_reg
                0x00000000001009cc                intel_cln_early_sb_write_reg
                0x0000000000100adf                remove_irm_protections
 .text          0x0000000000100c20      0x37f binaries/evec.o
                0x0000000000100c20                setirmask
                0x0000000000100c5f                set_evec
                0x0000000000100cbe                initevec
                0x0000000000100dd2                trap
 .text          0x0000000000100f9f       0x6a binaries/freebuf.o
                0x0000000000100f9f                freebuf
 .text          0x0000000000101009      0x102 binaries/freemem.o
                0x0000000000101009                freemem
 .text          0x000000000010110b       0x69 binaries/getbuf.o
                0x000000000010110b                getbuf
 .text          0x0000000000101174       0x51 binaries/getc.o
                0x0000000000101174                getc
 .text          0x00000000001011c5       0x68 binaries/getdev.o
                0x00000000001011c5                getdev
 .text          0x000000000010122d       0x86 binaries/getitem.o
                0x000000000010122d                getitem
                0x000000000010125c                getfirst
                0x0000000000101285                getlast
 .text          0x00000000001012b3       0xb5 binaries/getmem.o
                0x00000000001012b3                getmem
 .text          0x0000000000101368        0xa binaries/getpid.o
                0x0000000000101368                getpid
 .text          0x0000000000101372       0x5f binaries/getprio.o
                0x0000000000101372                getprio
 .text          0x00000000001013d1       0xa2 binaries/getstk.o
                0x00000000001013d1                getstk
 .text          0x0000000000101473       0x32 binaries/gettime.o
                0x0000000000101473                gettime
 .text          0x00000000001014a5      0x1b4 binaries/getutime.o
                0x00000000001014a5                getutime
 .text          0x0000000000101659       0x51 binaries/init.o
                0x0000000000101659                init
 .text          0x00000000001016aa      0x30e binaries/initialize.o
                0x00000000001016aa                nulluser
                0x000000000010196b                stop
                0x0000000000101992                delay
 .text          0x00000000001019b8       0xa1 binaries/insert.o
                0x00000000001019b8                insert
 .text          0x0000000000101a59       0xf1 binaries/insertd.o
                0x0000000000101a59                insertd
 .text          0x0000000000101b4a        0xa binaries/ioerr.o
                0x0000000000101b4a                ioerr
 .text          0x0000000000101b54       0x9f binaries/iointensive.o
                0x0000000000101b54                iointensive
 .text          0x0000000000101bf3        0xa binaries/ionull.o
                0x0000000000101bf3                ionull
 .text          0x0000000000101bfd      0x142 binaries/kill.o
                0x0000000000101bfd                kill
 .text          0x0000000000101d3f       0xd3 binaries/kprintf.o
                0x0000000000101d3f                kputc
                0x0000000000101d71                console_init
                0x0000000000101db1                kgetc
                0x0000000000101dd7                kprintf
 .text          0x0000000000101e12       0x22 binaries/lab0app1.o
                0x0000000000101e12                lab0app1
 .text          0x0000000000101e34       0x2a binaries/lab0app2.o
                0x0000000000101e34                lab0app2
 .text          0x0000000000101e5e      0x61c binaries/main.o
                0x0000000000101e5e                test
                0x0000000000101e96                main
 .text          0x000000000010247a       0x97 binaries/mark.o
                0x000000000010247a                markinit
                0x000000000010249d                mark
 .text          0x0000000000102511      0x1c7 binaries/meminit.o
                0x0000000000102511                meminit
                0x0000000000102660                setsegs
 .text          0x00000000001026d8      0x111 binaries/mkbufpool.o
                0x00000000001026d8                mkbufpool
 .text          0x00000000001027e9       0x24 binaries/myattacker.o
                0x00000000001027e9                myattacker
 .text          0x000000000010280d       0x2f binaries/myattackermalware.o
                0x000000000010280d                myattackermalware
 .text          0x000000000010283c       0x4c binaries/myvictim.o
                0x000000000010283c                second
                0x0000000000102850                first
                0x000000000010285d                myvictim
 .text          0x0000000000102888       0x63 binaries/newqueue.o
                0x0000000000102888                newqueue
 .text          0x00000000001028eb       0x5f binaries/open.o
                0x00000000001028eb                open
 .text          0x000000000010294a       0x20 binaries/panic.o
                0x000000000010294a                panic
 .text          0x000000000010296a      0x27a binaries/pci.o
                0x000000000010296a                pci_init
                0x0000000000102974                find_pci_device
                0x0000000000102a31                pci_read_config_byte
                0x0000000000102a6d                pci_read_config_word
                0x0000000000102aab                pci_read_config_dword
                0x0000000000102ae7                pci_write_config_byte
                0x0000000000102b21                pci_write_config_word
                0x0000000000102b5c                pci_write_config_dword
                0x0000000000102b96                pci_get_dev_mmio_base_addr
 .text          0x0000000000102be4       0x5a binaries/platinit.o
                0x0000000000102be4                platinit
 .text          0x0000000000102c3e       0x2b binaries/printloop.o
                0x0000000000102c3e                printloop
 .text          0x0000000000102c69       0x48 binaries/printnoloop.o
                0x0000000000102c69                printnoloop
 .text          0x0000000000102cb1       0x92 binaries/printsegaddress.o
                0x0000000000102cb1                printsegaddress
 .text          0x0000000000102d43       0xa9 binaries/ptclear.o
                0x0000000000102d43                _ptclear
 .text          0x0000000000102dec       0x71 binaries/ptcount.o
                0x0000000000102dec                ptcount
 .text          0x0000000000102e5d       0xc3 binaries/ptcreate.o
                0x0000000000102e5d                ptcreate
 .text          0x0000000000102f20       0x68 binaries/ptdelete.o
                0x0000000000102f20                ptdelete
 .text          0x0000000000102f88       0x8c binaries/ptinit.o
                0x0000000000102f88                ptinit
 .text          0x0000000000103014       0xc0 binaries/ptrecv.o
                0x0000000000103014                ptrecv
 .text          0x00000000001030d4       0x62 binaries/ptreset.o
                0x00000000001030d4                ptreset
 .text          0x0000000000103136       0xd2 binaries/ptsend.o
                0x0000000000103136                ptsend
 .text          0x0000000000103208       0x5f binaries/putc.o
                0x0000000000103208                putc
 .text          0x0000000000103267       0xd3 binaries/quark_irq.o
                0x0000000000103267                quark_irq_routing
 .text          0x000000000010333a      0x1c1 binaries/quark_pdat.o
                0x000000000010333a                get_quark_pdat_entry_data_by_id
                0x0000000000103417                get_quark_pdat_entry_data_by_desc
 .text          0x00000000001034fb       0xb5 binaries/queue.o
                0x00000000001034fb                enqueue
                0x0000000000103569                dequeue
 .text          0x00000000001035b0       0x5f binaries/read.o
                0x00000000001035b0                read
 .text          0x000000000010360f       0x6d binaries/ready.o
                0x000000000010360f                ready
 .text          0x000000000010367c       0x55 binaries/receive.o
                0x000000000010367c                receive
 .text          0x00000000001036d1       0x46 binaries/recvclr.o
                0x00000000001036d1                recvclr
 .text          0x0000000000103717       0xa0 binaries/recvtime.o
                0x0000000000103717                recvtime
 .text          0x00000000001037b7      0x132 binaries/resched.o
                0x00000000001037b7                resched
                0x0000000000103877                resched_cntl
 .text          0x00000000001038e9       0x8a binaries/resume.o
                0x00000000001038e9                resume
 .text          0x0000000000103973       0x58 binaries/seek.o
                0x0000000000103973                seek
 .text          0x00000000001039cb       0x4a binaries/semcount.o
                0x00000000001039cb                semcount
 .text          0x0000000000103a15       0x95 binaries/semcreate.o
                0x0000000000103a15                semcreate
 .text          0x0000000000103aaa       0xab binaries/semdelete.o
                0x0000000000103aaa                semdelete
 .text          0x0000000000103b55       0x96 binaries/semreset.o
                0x0000000000103b55                semreset
 .text          0x0000000000103beb       0xb6 binaries/send.o
                0x0000000000103beb                send
 .text          0x0000000000103ca1       0x7f binaries/signal.o
                0x0000000000103ca1                signal
 .text          0x0000000000103d20       0xaa binaries/signaln.o
                0x0000000000103d20                signaln
 .text          0x0000000000103dca       0xbf binaries/sleep.o
                0x0000000000103dca                sleepms
                0x0000000000103e57                sleep
 .text          0x0000000000103e89       0x8d binaries/stackdepth.o
                0x0000000000103e89                stackdepth
 .text          0x0000000000103f16      0x19b binaries/stacktrace.o
                0x0000000000103f16                stacktrace
 .text          0x00000000001040b1       0xb9 binaries/suspend.o
                0x00000000001040b1                suspend
 .text          0x000000000010416a       0xab binaries/unsleep.o
                0x000000000010416a                unsleep
 .text          0x0000000000104215       0x15 binaries/userret.o
                0x0000000000104215                userret
 .text          0x000000000010422a       0xa2 binaries/wait.o
                0x000000000010422a                wait
 .text          0x00000000001042cc       0x72 binaries/wakeup.o
                0x00000000001042cc                wakeup
 .text          0x000000000010433e       0x5f binaries/write.o
                0x000000000010433e                write
 .text          0x000000000010439d       0x19 binaries/xdone.o
                0x000000000010439d                xdone
 .text          0x00000000001043b6       0x26 binaries/yield.o
                0x00000000001043b6                yield
 .text          0x00000000001043dc       0x11 binaries/abs.o
                0x00000000001043dc                abs
 .text          0x00000000001043ed       0x73 binaries/atoi.o
                0x00000000001043ed                atoi
 .text          0x0000000000104460       0x73 binaries/atol.o
                0x0000000000104460                atol
 .text          0x00000000001044d3       0x1a binaries/bzero.o
                0x00000000001044d3                bzero
 .text          0x00000000001044ed        0x0 binaries/ctype_.o
 .text          0x00000000001044ed      0x682 binaries/doprnt.o
                0x000000000010463d                _doprnt
 .text          0x0000000000104b6f      0x576 binaries/doscan.o
                0x0000000000104b6f                _doscan
 .text          0x00000000001050e5      0x635 binaries/fdoprnt.o
                0x0000000000105167                _fdoprnt
 .text          0x000000000010571a       0x1c binaries/fgetc.o
                0x000000000010571a                fgetc
 .text          0x0000000000105736       0x5d binaries/fgets.o
                0x0000000000105736                fgets
 .text          0x0000000000105793       0x2e binaries/fprintf.o
                0x0000000000105793                fprintf
 .text          0x00000000001057c1       0x27 binaries/fputc.o
                0x00000000001057c1                fputc
 .text          0x00000000001057e8       0x3c binaries/fputs.o
                0x00000000001057e8                fputs
 .text          0x0000000000105824       0x7b binaries/fscanf.o
                0x0000000000105860                fscanf
 .text          0x000000000010589f       0x28 binaries/getchar.o
                0x000000000010589f                getchar
 .text          0x00000000001058c7       0x11 binaries/labs.o
                0x00000000001058c7                labs
 .text          0x00000000001058d8       0x36 binaries/memchr.o
                0x00000000001058d8                memchr
 .text          0x000000000010590e       0x4b binaries/memcmp.o
                0x000000000010590e                memcmp
 .text          0x0000000000105959       0x26 binaries/memcpy.o
                0x0000000000105959                memcpy
 .text          0x000000000010597f       0x1f binaries/memset.o
                0x000000000010597f                memset
 .text          0x000000000010599e       0x43 binaries/printf.o
                0x000000000010599e                printf
 .text          0x00000000001059e1       0x2f binaries/putchar.o
                0x00000000001059e1                putchar
 .text          0x0000000000105a10      0x1c2 binaries/qsort.o
                0x0000000000105baa                qsort
 .text          0x0000000000105bd2       0x4b binaries/rand.o
                0x0000000000105bd2                srand
                0x0000000000105bdf                rand
 .text          0x0000000000105c1d       0x55 binaries/sprintf.o
                0x0000000000105c36                sprintf
 .text          0x0000000000105c72       0x6f binaries/sscanf.o
                0x0000000000105ca2                sscanf
 .text          0x0000000000105ce1       0x35 binaries/strchr.o
                0x0000000000105ce1                strchr
 .text          0x0000000000105d16       0x45 binaries/strcmp.o
                0x0000000000105d16                strcmp
 .text          0x0000000000105d5b       0x1c binaries/strcpy.o
                0x0000000000105d5b                strcpy
 .text          0x0000000000105d77       0x20 binaries/strlen.o
                0x0000000000105d77                strlen
 .text          0x0000000000105d97       0x3c binaries/strncat.o
                0x0000000000105d97                strncat
 .text          0x0000000000105dd3       0x3b binaries/strncmp.o
                0x0000000000105dd3                strncmp
 .text          0x0000000000105e0e       0x59 binaries/strncpy.o
                0x0000000000105e0e                strncpy
 .text          0x0000000000105e67       0x32 binaries/strnlen.o
                0x0000000000105e67                strnlen
 .text          0x0000000000105e99       0x32 binaries/strrchr.o
                0x0000000000105e99                strrchr
 .text          0x0000000000105ecb       0x71 binaries/strstr.o
                0x0000000000105ecb                strstr
 .text          0x0000000000105f3c       0xbd binaries/ttycontrol.o
                0x0000000000105f3c                ttycontrol
 .text          0x0000000000105ff9       0x7e binaries/ttygetc.o
                0x0000000000105ff9                ttygetc
 .text          0x0000000000106077      0x4a3 binaries/ttyhandle_in.o
                0x000000000010613a                ttyhandle_in
 .text          0x000000000010651a      0x170 binaries/ttyhandle_out.o
                0x000000000010651a                ttyhandle_out
 .text          0x000000000010668a       0x87 binaries/ttyhandler.o
                0x000000000010668a                ttyhandler
 .text          0x0000000000106711      0x151 binaries/ttyinit.o
                0x0000000000106711                ttyinit
 .text          0x0000000000106862        0xf binaries/ttykickout.o
                0x0000000000106862                ttykickout
 .text          0x0000000000106871       0x95 binaries/ttyputc.o
                0x0000000000106871                ttyputc
 .text          0x0000000000106906       0xec binaries/ttyread.o
                0x0000000000106906                ttyread
 .text          0x00000000001069f2       0x4e binaries/ttywrite.o
                0x00000000001069f2                ttywrite
 .text          0x0000000000106a40      0x110 binaries/mount.o
                0x0000000000106a40                namlen
                0x0000000000106a7c                mount
 .text          0x0000000000106b50      0x205 binaries/naminit.o
                0x0000000000106b50                naminit
 .text          0x0000000000106d55      0x203 binaries/nammap.o
                0x0000000000106d55                namrepl
                0x0000000000106e68                namcpy
                0x0000000000106eb6                nammap
 .text          0x0000000000106f58       0x4e binaries/namopen.o
                0x0000000000106f58                namopen
 .text          0x0000000000106fa6       0xdd binaries/colon2mac.o
                0x0000000000106fa6                colon2mac
 .text          0x0000000000107083       0x77 binaries/ethcontrol.o
                0x0000000000107083                ethcontrol
 .text          0x00000000001070fa      0x106 binaries/ethhandler.o
                0x00000000001070fa                ethhandler
 .text          0x0000000000107200      0x4da binaries/ethinit.o
                0x0000000000107200                eth_phy_read
                0x0000000000107242                eth_phy_write
                0x0000000000107285                eth_phy_reset
                0x0000000000107384                ethinit
 .text          0x00000000001076da      0x125 binaries/ethmcast.o
                0x00000000001076da                ethmcast_add
                0x000000000010772f                ethmcast_remove
 .text          0x00000000001077ff      0x14b binaries/ethread.o
                0x00000000001077ff                ethread
 .text          0x000000000010794a       0xa6 binaries/ethwrite.o
                0x000000000010794a                ethwrite
 .text          0x00000000001079f0       0x65 binaries/rdsbufalloc.o
                0x00000000001079f0                rdsbufalloc
 .text          0x0000000000107a55       0x82 binaries/rdsclose.o
                0x0000000000107a55                rdsclose
 .text          0x0000000000107ad7      0x1f1 binaries/rdscomm.o
                0x0000000000107ad7                rdscomm
 .text          0x0000000000107cc8      0x18f binaries/rdscontrol.o
                0x0000000000107cc8                rdscontrol
 .text          0x0000000000107e57      0x183 binaries/rdsinit.o
                0x0000000000107e57                rdsinit
 .text          0x0000000000107fda      0x15b binaries/rdsopen.o
                0x0000000000107fda                rdsopen
 .text          0x0000000000108135      0x2e4 binaries/rdsprocess.o
                0x0000000000108135                rdsprocess
 .text          0x0000000000108419      0x18b binaries/rdsread.o
                0x0000000000108419                rdsread
 .text          0x00000000001085a4      0x141 binaries/rdswrite.o
                0x00000000001085a4                rdswrite
 .text          0x00000000001086e5        0xa binaries/ramclose.o
                0x00000000001086e5                ramclose
 .text          0x00000000001086ef       0x45 binaries/raminit.o
                0x00000000001086ef                raminit
 .text          0x0000000000108734        0xa binaries/ramopen.o
                0x0000000000108734                ramopen
 .text          0x000000000010873e       0x2f binaries/ramread.o
                0x000000000010873e                ramread
 .text          0x000000000010876d       0x2f binaries/ramwrite.o
                0x000000000010876d                ramwrite
 .text          0x000000000010879c       0x94 binaries/lfdballoc.o
                0x000000000010879c                lfdballoc
 .text          0x0000000000108830       0x5d binaries/lfdbfree.o
                0x0000000000108830                lfdbfree
 .text          0x000000000010888d       0xad binaries/lfflush.o
                0x000000000010888d                lfflush
 .text          0x000000000010893a       0x82 binaries/lfgetmode.o
                0x000000000010893a                lfgetmode
 .text          0x00000000001089bc       0x6a binaries/lfiballoc.o
                0x00000000001089bc                lfiballoc
 .text          0x0000000000108a26       0x27 binaries/lfibclear.o
                0x0000000000108a26                lfibclear
 .text          0x0000000000108a4d       0x75 binaries/lfibget.o
                0x0000000000108a4d                lfibget
 .text          0x0000000000108ac2       0x9d binaries/lfibput.o
                0x0000000000108ac2                lfibput
 .text          0x0000000000108b5f       0x79 binaries/lflclose.o
                0x0000000000108b5f                lflclose
 .text          0x0000000000108bd8       0xa3 binaries/lflcontrol.o
                0x0000000000108bd8                lflcontrol
 .text          0x0000000000108c7b       0xa1 binaries/lflgetc.o
                0x0000000000108c7b                lflgetc
 .text          0x0000000000108d1c       0xbb binaries/lflinit.o
                0x0000000000108d1c                lflinit
 .text          0x0000000000108dd7       0xbc binaries/lflputc.o
                0x0000000000108dd7                lflputc
 .text          0x0000000000108e93       0x6b binaries/lflread.o
                0x0000000000108e93                lflread
 .text          0x0000000000108efe       0x84 binaries/lflseek.o
                0x0000000000108efe                lflseek
 .text          0x0000000000108f82       0x5a binaries/lflwrite.o
                0x0000000000108f82                lflwrite
 .text          0x0000000000108fdc      0x126 binaries/lfsckfmt.o
                0x0000000000108fdc                lfsckfmt
 .text          0x0000000000109102      0x201 binaries/lfscreate.o
                0x0000000000109102                lfscreate
 .text          0x0000000000109303      0x1b8 binaries/lfsetup.o
                0x0000000000109303                lfsetup
 .text          0x00000000001094bb       0x52 binaries/lfsinit.o
                0x00000000001094bb                lfsinit
 .text          0x000000000010950d      0x2ab binaries/lfsopen.o
                0x000000000010950d                lfsopen
 .text          0x00000000001097b8      0x117 binaries/lftruncate.o
                0x00000000001097b8                lftruncate
 .text          0x00000000001098cf       0x5a binaries/rflclose.o
                0x00000000001098cf                rflclose
 .text          0x0000000000109929       0x32 binaries/rflgetc.o
                0x0000000000109929                rflgetc
 .text          0x000000000010995b       0x4e binaries/rflinit.o
                0x000000000010995b                rflinit
 .text          0x00000000001099a9       0x37 binaries/rflputc.o
                0x00000000001099a9                rflputc
 .text          0x00000000001099e0      0x285 binaries/rflread.o
                0x00000000001099e0                rflread
 .text          0x0000000000109c65       0x5f binaries/rflseek.o
                0x0000000000109c65                rflseek
 .text          0x0000000000109cc4      0x2c5 binaries/rflwrite.o
                0x0000000000109cc4                rflwrite
 .text          0x0000000000109f89      0x183 binaries/rfscomm.o
                0x0000000000109f89                rfscomm
 .text          0x000000000010a10c      0x232 binaries/rfscontrol.o
                0x000000000010a10c                rfscontrol
 .text          0x000000000010a33e       0x82 binaries/rfsgetmode.o
                0x000000000010a33e                rfsgetmode
 .text          0x000000000010a3c0       0x77 binaries/rfsinit.o
                0x000000000010a3c0                rfsinit
 .text          0x000000000010a437       0xb1 binaries/rfsndmsg.o
                0x000000000010a437                rfsndmsg
 .text          0x000000000010a4e8      0x220 binaries/rfsopen.o
                0x000000000010a4e8                rfsopen
 .text          0x000000000010a708      0x645 binaries/arp.o
                0x000000000010a708                arp_init
                0x000000000010a724                arp_alloc
                0x000000000010a7d8                arp_ntoh
                0x000000000010a845                arp_hton
                0x000000000010a8b2                arp_resolve
                0x000000000010ab20                arp_in
 .text          0x000000000010ad4d      0x667 binaries/dhcp.o
                0x000000000010ad4d                dhcp_get_opt_val
                0x000000000010ada1                dhcp_bld_bootp_msg
                0x000000000010aea2                dhcp_bld_disc
                0x000000000010aef7                dhcp_bld_req
                0x000000000010af96                getlocalip
 .text          0x000000000010b3b4       0xe0 binaries/dot2ip.o
                0x000000000010b3b4                dot2ip
 .text          0x000000000010b494      0x373 binaries/hexdump.o
                0x000000000010b494                hexdump
                0x000000000010b5cd                hexadump
 .text          0x000000000010b807      0x5fb binaries/icmp.o
                0x000000000010b807                icmp_init
                0x000000000010b823                icmp_register
                0x000000000010b8d8                icmp_recv
                0x000000000010ba29                icmp_mkpkt
                0x000000000010bb00                icmp_in
                0x000000000010bc3c                icmp_send
                0x000000000010bcb8                icmp_release
                0x000000000010bd75                icmp_cksum
                0x000000000010bdd4                icmp_hton
                0x000000000010bdeb                icmp_ntoh
 .text          0x000000000010be02      0x57c binaries/ip.o
                0x000000000010be02                ip_local
                0x000000000010be36                ipcksum
                0x000000000010be8a                ip_ntoh
                0x000000000010bef7                ip_in
                0x000000000010bfef                ip_hton
                0x000000000010c05c                ip_out
                0x000000000010c113                ip_send
                0x000000000010c211                ipout
                0x000000000010c2f0                ip_enqueue
 .text          0x000000000010c37e      0x1dd binaries/net.o
                0x000000000010c37e                net_init
                0x000000000010c4ba                eth_hton
                0x000000000010c4c7                eth_ntoh
                0x000000000010c4d4                netin
 .text          0x000000000010c55b       0xd7 binaries/netstart.o
                0x000000000010c55b                netstart
 .text          0x000000000010c632      0xb45 binaries/pdump.o
                0x000000000010c632                pdump
                0x000000000010cca2                pdumph
 .text          0x000000000010d177      0x5ce binaries/tftp.o
                0x000000000010d177                tftp_send1
                0x000000000010d2a3                tftpget_mb
                0x000000000010d70c                tftpget
 .text          0x000000000010d745      0x7f1 binaries/udp.o
                0x000000000010d745                udp_init
                0x000000000010d786                udp_in
                0x000000000010d847                udp_register
                0x000000000010d933                udp_recv
                0x000000000010da53                udp_recvaddr
                0x000000000010db88                udp_send
                0x000000000010dcfe                udp_sendto
                0x000000000010de4b                udp_release
                0x000000000010df08                udp_ntoh
                0x000000000010df1f                udp_hton
 .text          0x000000000010df36       0xff binaries/addargs.o
                0x000000000010df36                addargs
 .text          0x000000000010e035      0x1f1 binaries/lexan.o
                0x000000000010e035                lexan
 .text          0x000000000010e226      0x6ad binaries/shell.o
                0x000000000010e226                shell
 .text          0x000000000010e8d3       0x5d binaries/xsh_argecho.o
                0x000000000010e8d3                xsh_argecho
 .text          0x000000000010e930      0x1d4 binaries/xsh_arp.o
                0x000000000010e930                xsh_arp
 .text          0x000000000010eb04      0x220 binaries/xsh_cat.o
                0x000000000010eb04                xsh_cat
 .text          0x000000000010ed24       0x57 binaries/xsh_clear.o
                0x000000000010ed24                xsh_clear
 .text          0x000000000010ed7b      0x2bd binaries/xsh_date.o
                0x000000000010ed7b                xsh_date
 .text          0x000000000010f038       0x92 binaries/xsh_devdump.o
                0x000000000010f038                xsh_devdump
 .text          0x000000000010f0ca       0x62 binaries/xsh_echo.o
                0x000000000010f0ca                xsh_echo
 .text          0x000000000010f12c        0xa binaries/xsh_exit.o
                0x000000000010f12c                xsh_exit
 .text          0x000000000010f136      0x332 binaries/xsh_help.o
                0x000000000010f136                xsh_help
 .text          0x000000000010f468      0x42d binaries/xsh_ipaddr.o
                0x000000000010f468                xsh_ipaddr
 .text          0x000000000010f895      0x1fb binaries/xsh_kill.o
                0x000000000010f895                xsh_kill
 .text          0x000000000010fa90      0x402 binaries/xsh_memdump.o
                0x000000000010fb4a                xsh_memdump
 .text          0x000000000010fe92      0x1fd binaries/xsh_memstat.o
                0x000000000010fe92                xsh_memstat
 .text          0x000000000011008f      0x31c binaries/xsh_ping.o
                0x000000000011008f                xsh_ping
 .text          0x00000000001103ab       0x88 binaries/xsh_poo.o
                0x00000000001103ab                xsh_poo
 .text          0x0000000000110433      0x215 binaries/xsh_ps.o
                0x0000000000110433                xsh_ps
 .text          0x0000000000110648      0x3b7 binaries/xsh_rdstest.o
                0x0000000000110648                xsh_rdstest
 .text          0x00000000001109ff      0x1e9 binaries/xsh_sleep.o
                0x00000000001109ff                xsh_sleep
 .text          0x0000000000110be8      0x22a binaries/xsh_udpdump.o
                0x0000000000110be8                xsh_udpdump
 .text          0x0000000000110e12      0x454 binaries/xsh_udpecho.o
                0x0000000000110e12                xsh_udpecho
 .text          0x0000000000111266      0x27d binaries/xsh_udpeserver.o
                0x0000000000111266                xsh_udpeserver
 .text          0x00000000001114e3      0x1cd binaries/xsh_uptime.o
                0x00000000001114e3                xsh_uptime
 .text          0x00000000001116b0        0xe binaries/clkdisp.o
                0x00000000001116b0                clkdisp
 .text          0x00000000001116be       0x19 binaries/ctxsw.o
                0x00000000001116be                ctxsw
 .text          0x00000000001116d7        0xa binaries/host2netl.o
                0x00000000001116d7                host2netl
 .text          0x00000000001116e1      0x36b binaries/intr.o
                0x00000000001116e1                disable
                0x00000000001116ea                restore
                0x00000000001116f8                enable
                0x00000000001116fa                pause
                0x0000000000111701                halt
                0x0000000000111707                spurious_irq7
                0x000000000011170c                spurious_irq15
                0x000000000011171b                _Xint0
                0x0000000000111726                _Xint1
                0x0000000000111731                _Xint2
                0x000000000011173c                _Xint3
                0x0000000000111747                _Xint4
                0x0000000000111752                _Xint5
                0x000000000011175d                _Xint6
                0x0000000000111768                _Xint7
                0x0000000000111773                _Xint8
                0x000000000011177e                _Xint9
                0x0000000000111789                _Xint10
                0x0000000000111794                _Xint11
                0x00000000001117a2                _Xint12
                0x00000000001117b0                _Xint13
                0x00000000001117be                _Xint14
                0x00000000001117cc                _Xint15
                0x00000000001117da                _Xint16
                0x00000000001117e8                _Xint17
                0x00000000001117f6                _Xint18
                0x0000000000111804                _Xint19
                0x0000000000111812                _Xint20
                0x0000000000111820                _Xint21
                0x000000000011182e                _Xint22
                0x000000000011183c                _Xint23
                0x000000000011184a                _Xint24
                0x0000000000111858                _Xint25
                0x0000000000111866                _Xint26
                0x0000000000111874                _Xint27
                0x0000000000111882                _Xint28
                0x0000000000111890                _Xint29
                0x000000000011189e                _Xint30
                0x00000000001118ac                _Xint31
                0x00000000001118ba                _Xint32
                0x00000000001118c8                _Xint33
                0x00000000001118d6                _Xint34
                0x00000000001118e4                _Xint35
                0x00000000001118f2                _Xint36
                0x0000000000111900                _Xint37
                0x000000000011190e                _Xint38
                0x000000000011191c                _Xint39
                0x000000000011192a                _Xint40
                0x0000000000111938                _Xint41
                0x0000000000111946                _Xint42
                0x0000000000111954                _Xint43
                0x0000000000111962                _Xint44
                0x0000000000111970                _Xint45
                0x000000000011197e                _Xint46
                0x000000000011198c                defevec
 .text          0x0000000000111a4c        0xf binaries/ttydispatch.o
                0x0000000000111a4c                ttydispatch
 .text          0x0000000000111a5b       0x13 binaries/ethdispatch.o
                0x0000000000111a5b                ethdispatch
 *(.rodata .rodata.*)
 .rodata.str1.1
                0x0000000000111a6e       0x54 binaries/ascdate.o
 *fill*         0x0000000000111ac2        0x2 
 .rodata.str1.4
                0x0000000000111ac4       0x22 binaries/ascdate.o
 .rodata.str1.1
                0x0000000000111ae6       0x5f binaries/conf.o
 *fill*         0x0000000000111b45        0x3 
 .rodata.str1.4
                0x0000000000111b48       0x7d binaries/cpuintensive.o
 *fill*         0x0000000000111bc5        0x3 
 .rodata.str1.4
                0x0000000000111bc8       0x4f binaries/early_imr.o
 .rodata        0x0000000000111c17       0x30 binaries/early_imr.o
 .rodata.str1.1
                0x0000000000111c47      0x20c binaries/evec.o
 *fill*         0x0000000000111e53        0x1 
 .rodata.str1.4
                0x0000000000111e54       0x23 binaries/evec.o
 .rodata.str1.1
                0x0000000000111e77        0xb binaries/getutime.o
 *fill*         0x0000000000111e82        0x2 
 .rodata.str1.4
                0x0000000000111e84       0x54 binaries/getutime.o
 .rodata.str1.1
                0x0000000000111ed8       0x88 binaries/initialize.o
                                         0x90 (size before relaxing)
 .rodata.str1.4
                0x0000000000111f60      0x260 binaries/initialize.o
 .rodata.str1.4
                0x00000000001121c0       0x58 binaries/iointensive.o
                                         0x7d (size before relaxing)
 .rodata        0x0000000000112218       0x20 binaries/kill.o
 .rodata.str1.4
                0x0000000000112238       0x2b binaries/lab0app1.o
 .rodata.str1.1
                0x0000000000112263       0x1a binaries/lab0app2.o
 *fill*         0x000000000011227d        0x3 
 .rodata.str1.4
                0x0000000000112280       0xca binaries/main.o
 .rodata.str1.1
                0x000000000011234a       0x88 binaries/main.o
                                         0x8b (size before relaxing)
 *fill*         0x00000000001123d2        0x2 
 .rodata.str1.4
                0x00000000001123d4       0x23 binaries/meminit.o
 .rodata.str1.1
                0x00000000001123f7       0x1b binaries/meminit.o
 *fill*         0x0000000000112412        0x2 
 .rodata.str1.4
                0x0000000000112414       0x33 binaries/myattackermalware.o
 *fill*         0x0000000000112447        0x1 
 .rodata.str1.4
                0x0000000000112448       0x2b binaries/myvictim.o
 .rodata.str1.1
                0x0000000000112473        0xf binaries/panic.o
 *fill*         0x0000000000112482        0x2 
 .rodata.str1.4
                0x0000000000112484       0x23 binaries/printnoloop.o
 .rodata.str1.1
                0x00000000001124a7       0x2a binaries/printsegaddress.o
 *fill*         0x00000000001124d1        0x3 
 .rodata.str1.4
                0x00000000001124d4       0x20 binaries/printsegaddress.o
 .rodata.str1.1
                0x00000000001124f4       0x1c binaries/ptinit.o
 .rodata.str1.4
                0x0000000000112510       0x25 binaries/ptsend.o
 .rodata.str1.1
                0x0000000000112535       0x22 binaries/quark_pdat.o
 .rodata.str1.1
                0x0000000000112557       0x4d binaries/stackdepth.o
 .rodata.str1.4
                0x00000000001125a4       0x63 binaries/stacktrace.o
 .rodata.str1.1
                0x0000000000112607       0x52 binaries/stacktrace.o
 *fill*         0x0000000000112659        0x3 
 .rodata.str1.4
                0x000000000011265c       0x27 binaries/xdone.o
 *fill*         0x0000000000112683       0x1d 
 .rodata        0x00000000001126a0       0x81 binaries/ctype_.o
                0x00000000001126a0                _ctype_
 .rodata.str1.1
                0x0000000000112721       0x29 binaries/doprnt.o
 *fill*         0x000000000011274a        0x2 
 .rodata        0x000000000011274c       0xc4 binaries/doprnt.o
 .rodata        0x0000000000112810       0x98 binaries/doscan.o
 .rodata.str1.1
                0x0000000000000000       0x29 binaries/fdoprnt.o
 .rodata        0x00000000001128a8       0x84 binaries/fdoprnt.o
 .rodata        0x000000000011292c       0x20 binaries/ttycontrol.o
 .rodata.str1.4
                0x000000000011294c       0x4c binaries/naminit.o
 .rodata.str1.1
                0x0000000000112998       0x32 binaries/naminit.o
                                         0x35 (size before relaxing)
 .rodata.str1.1
                0x00000000001129ca       0x15 binaries/ethinit.o
 *fill*         0x00000000001129df        0x1 
 .rodata.str1.4
                0x00000000001129e0       0x2e binaries/ethinit.o
 *fill*         0x0000000000112a0e        0x2 
 .rodata.str1.4
                0x0000000000112a10       0x2c binaries/rdsbufalloc.o
 .rodata.str1.4
                0x0000000000112a3c       0x76 binaries/rdscomm.o
 *fill*         0x0000000000112ab2        0x2 
 .rodata.str1.4
                0x0000000000112ab4       0x48 binaries/rdscontrol.o
 .rodata.str1.4
                0x0000000000112afc       0x7e binaries/rdsinit.o
 .rodata.str1.1
                0x0000000000112b7a       0x18 binaries/rdsinit.o
 *fill*         0x0000000000112b92        0x2 
 .rodata.str1.4
                0x0000000000112b94       0x22 binaries/rdsopen.o
 *fill*         0x0000000000112bb6        0x2 
 .rodata.str1.4
                0x0000000000112bb8       0x4d binaries/rdsprocess.o
 .rodata.str1.1
                0x0000000000112c05        0x9 binaries/raminit.o
 .rodata.str1.1
                0x0000000000112c0e       0x13 binaries/lfdballoc.o
 *fill*         0x0000000000112c21        0x3 
 .rodata.str1.4
                0x0000000000112c24       0x23 binaries/lfdballoc.o
 .rodata.str1.1
                0x0000000000112c47       0x14 binaries/lfiballoc.o
 *fill*         0x0000000000112c5b        0x1 
 .rodata.str1.4
                0x0000000000112c5c       0x23 binaries/lflcontrol.o
 .rodata.str1.1
                0x0000000000112c7f       0x64 binaries/lfsckfmt.o
 *fill*         0x0000000000112ce3        0x1 
 .rodata.str1.4
                0x0000000000112ce4       0x51 binaries/lfsckfmt.o
 *fill*         0x0000000000112d35        0x3 
 .rodata.str1.4
                0x0000000000112d38       0x21 binaries/rflread.o
 .rodata.str1.4
                0x0000000000000000       0x21 binaries/rflwrite.o
 *fill*         0x0000000000112d59        0x3 
 .rodata.str1.4
                0x0000000000112d5c       0x75 binaries/rfscomm.o
 *fill*         0x0000000000112dd1        0x3 
 .rodata.str1.4
                0x0000000000112dd4       0x23 binaries/rfscontrol.o
 *fill*         0x0000000000112df7        0x1 
 .rodata        0x0000000000112df8       0x18 binaries/rfscontrol.o
 .rodata.str1.1
                0x0000000000000000       0x10 binaries/rfsinit.o
 .rodata.str1.4
                0x0000000000112e10       0x57 binaries/rfsinit.o
 *fill*         0x0000000000112e67        0x1 
 .rodata.str1.4
                0x0000000000112e68       0x2a binaries/rfsndmsg.o
 .rodata.str1.4
                0x0000000000000000       0x22 binaries/rfsopen.o
 .rodata.str1.1
                0x0000000000112e92       0x19 binaries/arp.o
 *fill*         0x0000000000112eab        0x1 
 .rodata.str1.4
                0x0000000000112eac       0x21 binaries/arp.o
 *fill*         0x0000000000112ecd        0x3 
 .rodata.str1.4
                0x0000000000112ed0       0xa6 binaries/dhcp.o
 .rodata.str1.1
                0x0000000000112f76       0x4a binaries/dhcp.o
 .rodata.str1.1
                0x0000000000112fc0       0x5a binaries/hexdump.o
                                         0x61 (size before relaxing)
 *fill*         0x000000000011301a        0x2 
 .rodata.str1.4
                0x000000000011301c       0x67 binaries/hexdump.o
 *fill*         0x0000000000113083        0x1 
 .rodata.str1.4
                0x0000000000113084       0x29 binaries/icmp.o
 .rodata.str1.1
                0x00000000001130ad       0x4e binaries/ip.o
 *fill*         0x00000000001130fb        0x1 
 .rodata.str1.4
                0x00000000001130fc       0x20 binaries/ip.o
 .rodata.str1.4
                0x000000000011311c       0x28 binaries/net.o
 .rodata.str1.1
                0x0000000000113144       0x27 binaries/net.o
 *fill*         0x000000000011316b        0x1 
 .rodata.str1.4
                0x000000000011316c       0xcf binaries/netstart.o
 .rodata.str1.1
                0x000000000011323b      0x141 binaries/pdump.o
                                        0x14b (size before relaxing)
 .rodata.str1.4
                0x000000000011337c      0x126 binaries/pdump.o
 *fill*         0x00000000001134a2        0x2 
 .rodata.str1.4
                0x00000000001134a4      0x148 binaries/tftp.o
 .rodata.str1.1
                0x00000000001135ec        0x6 binaries/tftp.o
                                          0xa (size before relaxing)
 .rodata.str1.1
                0x00000000001135f2       0xe7 binaries/shell.o
                                        0x103 (size before relaxing)
 *fill*         0x00000000001136d9        0x3 
 .rodata.str1.4
                0x00000000001136dc      0x1c4 binaries/shell.o
 .rodata        0x00000000001138a0      0x108 binaries/shell.o
                0x00000000001138a0                cmdtab
 .rodata.str1.1
                0x00000000001139a8       0x26 binaries/xsh_argecho.o
                                         0x28 (size before relaxing)
 .rodata.str1.1
                0x00000000001139ce       0x70 binaries/xsh_arp.o
                                         0x72 (size before relaxing)
 *fill*         0x0000000000113a3e        0x2 
 .rodata.str1.4
                0x0000000000113a40       0xb4 binaries/xsh_arp.o
 .rodata.str1.1
                0x0000000000113af4       0x2d binaries/xsh_cat.o
                                         0x4f (size before relaxing)
 *fill*         0x0000000000113b21        0x3 
 .rodata.str1.4
                0x0000000000113b24       0x52 binaries/xsh_cat.o
                                         0x79 (size before relaxing)
 .rodata.str1.1
                0x0000000000113b76       0x15 binaries/xsh_clear.o
 .rodata.str1.1
                0x0000000000113b8b       0x46 binaries/xsh_date.o
                                         0x5f (size before relaxing)
 *fill*         0x0000000000113bd1        0x3 
 .rodata.str1.4
                0x0000000000113bd4      0x163 binaries/xsh_date.o
 .rodata.str1.1
                0x0000000000113d37       0x5d binaries/xsh_devdump.o
 .rodata.str1.1
                0x0000000000113d94        0x4 binaries/xsh_echo.o
                                          0x9 (size before relaxing)
 .rodata.str1.1
                0x0000000000113d98       0x65 binaries/xsh_help.o
                                         0xa3 (size before relaxing)
 *fill*         0x0000000000113dfd        0x3 
 .rodata.str1.4
                0x0000000000113e00       0x7c binaries/xsh_help.o
                                         0xc6 (size before relaxing)
 .rodata.str1.1
                0x0000000000113e7c       0x9c binaries/xsh_ipaddr.o
                                         0xf8 (size before relaxing)
 .rodata.str1.4
                0x0000000000113f18       0x4d binaries/xsh_ipaddr.o
                                         0x99 (size before relaxing)
 .rodata.str1.1
                0x0000000000113f65       0x78 binaries/xsh_kill.o
                                         0x97 (size before relaxing)
 *fill*         0x0000000000113fdd        0x3 
 .rodata.str1.4
                0x0000000000113fe0       0x4a binaries/xsh_kill.o
                                         0x96 (size before relaxing)
 .rodata.str1.1
                0x000000000011402a       0x84 binaries/xsh_memdump.o
                                         0xa8 (size before relaxing)
 *fill*         0x00000000001140ae        0x2 
 .rodata.str1.4
                0x00000000001140b0      0x15a binaries/xsh_memdump.o
                                        0x1aa (size before relaxing)
 .rodata.str1.1
                0x000000000011420a       0x40 binaries/xsh_memstat.o
                                         0x79 (size before relaxing)
 *fill*         0x000000000011424a        0x2 
 .rodata.str1.4
                0x000000000011424c      0x187 binaries/xsh_memstat.o
                                        0x1af (size before relaxing)
 .rodata.str1.1
                0x00000000001143d3       0x90 binaries/xsh_ping.o
                                         0xaf (size before relaxing)
 *fill*         0x0000000000114463        0x1 
 .rodata.str1.4
                0x0000000000114464       0x77 binaries/xsh_ping.o
                                         0xc6 (size before relaxing)
 .rodata.str1.1
                0x00000000001144db        0x9 binaries/xsh_poo.o
                                         0x28 (size before relaxing)
 .rodata.str1.4
                0x00000000001144e4      0x936 binaries/xsh_poo.o
 .rodata.str1.1
                0x0000000000114e1a       0x7d binaries/xsh_ps.o
                                         0xe7 (size before relaxing)
 *fill*         0x0000000000114e97        0x1 
 .rodata.str1.4
                0x0000000000114e98       0xbb binaries/xsh_ps.o
                                        0x10b (size before relaxing)
 *fill*         0x0000000000114f53        0xd 
 .rodata        0x0000000000114f60       0x20 binaries/xsh_ps.o
 .rodata.str1.1
                0x0000000000114f80      0x102 binaries/xsh_rdstest.o
 *fill*         0x0000000000115082        0x2 
 .rodata.str1.4
                0x0000000000115084      0x174 binaries/xsh_rdstest.o
 .rodata.str1.1
                0x00000000001151f8       0x31 binaries/xsh_sleep.o
                                         0x72 (size before relaxing)
 *fill*         0x0000000000115229        0x3 
 .rodata.str1.4
                0x000000000011522c       0x2a binaries/xsh_sleep.o
                                         0x7a (size before relaxing)
 .rodata.str1.1
                0x0000000000115256       0x6b binaries/xsh_udpdump.o
                                         0xd2 (size before relaxing)
 *fill*         0x00000000001152c1        0x3 
 .rodata.str1.4
                0x00000000001152c4       0x94 binaries/xsh_udpdump.o
                                         0xe4 (size before relaxing)
 .rodata.str1.1
                0x0000000000115358       0xdb binaries/xsh_udpecho.o
                                         0xfa (size before relaxing)
 *fill*         0x0000000000115433        0x1 
 .rodata.str1.4
                0x0000000000115434       0xc7 binaries/xsh_udpecho.o
                                        0x116 (size before relaxing)
 .rodata.str1.1
                0x00000000001154fb       0x66 binaries/xsh_udpeserver.o
                                         0x8f (size before relaxing)
 *fill*         0x0000000000115561        0x3 
 .rodata.str1.4
                0x0000000000115564       0x29 binaries/xsh_udpeserver.o
                                         0x9f (size before relaxing)
 .rodata.str1.1
                0x000000000011558d       0x49 binaries/xsh_uptime.o
                                         0x8c (size before relaxing)
 *fill*         0x00000000001155d6        0x2 
 .rodata.str1.4
                0x00000000001155d8       0x28 binaries/xsh_uptime.o
                                         0x76 (size before relaxing)
                0x0000000000115600                etext = ABSOLUTE (.)
                0x0000000000116000                . = ALIGN (0x1000)
 *fill*         0x0000000000115600      0xa00 

.eh_frame       0x0000000000116000     0x316c
 .eh_frame      0x0000000000116000       0x48 binaries/ascdate.o
 .eh_frame      0x0000000000116048       0x20 binaries/bufinit.o
                                         0x38 (size before relaxing)
 .eh_frame      0x0000000000116068       0x2c binaries/chprio.o
                                         0x44 (size before relaxing)
 .eh_frame      0x0000000000116094       0x20 binaries/clkhandler.o
                                         0x38 (size before relaxing)
 .eh_frame      0x00000000001160b4       0x20 binaries/clkinit.o
                                         0x38 (size before relaxing)
 .eh_frame      0x00000000001160d4       0x28 binaries/close.o
                                         0x40 (size before relaxing)
 .eh_frame      0x00000000001160fc       0x28 binaries/control.o
                                         0x40 (size before relaxing)
 .eh_frame      0x0000000000116124       0x2c binaries/cpuintensive.o
                                         0x44 (size before relaxing)
 .eh_frame      0x0000000000116150       0x30 binaries/create.o
                                         0x48 (size before relaxing)
 .eh_frame      0x0000000000116180       0x94 binaries/early_imr.o
                                         0xac (size before relaxing)
 .eh_frame      0x0000000000116214       0x9c binaries/evec.o
                                         0xb4 (size before relaxing)
 .eh_frame      0x00000000001162b0       0x28 binaries/freebuf.o
                                         0x40 (size before relaxing)
 .eh_frame      0x00000000001162d8       0x2c binaries/freemem.o
                                         0x44 (size before relaxing)
 .eh_frame      0x0000000000116304       0x2c binaries/getbuf.o
                                         0x44 (size before relaxing)
 .eh_frame      0x0000000000116330       0x28 binaries/getc.o
                                         0x40 (size before relaxing)
 .eh_frame      0x0000000000116358       0x2c binaries/getdev.o
                                         0x44 (size before relaxing)
 .eh_frame      0x0000000000116384       0x64 binaries/getitem.o
                                         0x7c (size before relaxing)
 .eh_frame      0x00000000001163e8       0x28 binaries/getmem.o
                                         0x40 (size before relaxing)
 .eh_frame      0x0000000000116410       0x20 binaries/getpid.o
                                         0x38 (size before relaxing)
 .eh_frame      0x0000000000116430       0x24 binaries/getprio.o
                                         0x3c (size before relaxing)
 .eh_frame      0x0000000000116454       0x2c binaries/getstk.o
                                         0x44 (size before relaxing)
 .eh_frame      0x0000000000116480       0x20 binaries/gettime.o
                                         0x38 (size before relaxing)
 .eh_frame      0x00000000001164a0       0x28 binaries/getutime.o
                                         0x40 (size before relaxing)
 .eh_frame      0x00000000001164c8       0x28 binaries/init.o
                                         0x40 (size before relaxing)
 .eh_frame      0x00000000001164f0       0x5c binaries/initialize.o
                                         0x74 (size before relaxing)
 .eh_frame      0x000000000011654c       0x28 binaries/insert.o
                                         0x40 (size before relaxing)
 .eh_frame      0x0000000000116574       0x2c binaries/insertd.o
                                         0x44 (size before relaxing)
 .eh_frame      0x00000000001165a0       0x20 binaries/ioerr.o
                                         0x38 (size before relaxing)
 .eh_frame      0x00000000001165c0       0x2c binaries/iointensive.o
                                         0x44 (size before relaxing)
 .eh_frame      0x00000000001165ec       0x20 binaries/ionull.o
                                         0x38 (size before relaxing)
 .eh_frame      0x000000000011660c       0x30 binaries/kill.o
                                         0x48 (size before relaxing)
 .eh_frame      0x000000000011663c       0x84 binaries/kprintf.o
                                         0x9c (size before relaxing)
 .eh_frame      0x00000000001166c0       0x20 binaries/lab0app1.o
                                         0x38 (size before relaxing)
 .eh_frame      0x00000000001166e0       0x20 binaries/lab0app2.o
                                         0x38 (size before relaxing)
 .eh_frame      0x0000000000116700       0x44 binaries/main.o
                                         0x5c (size before relaxing)
 .eh_frame      0x0000000000116744       0x44 binaries/mark.o
                                         0x5c (size before relaxing)
 .eh_frame      0x0000000000116788       0x50 binaries/meminit.o
                                         0x68 (size before relaxing)
 .eh_frame      0x00000000001167d8       0x30 binaries/mkbufpool.o
                                         0x48 (size before relaxing)
 .eh_frame      0x0000000000116808       0x20 binaries/myattacker.o
                                         0x38 (size before relaxing)
 .eh_frame      0x0000000000116828       0x20 binaries/myattackermalware.o
                                         0x38 (size before relaxing)
 .eh_frame      0x0000000000116848       0x60 binaries/myvictim.o
                                         0x78 (size before relaxing)
 .eh_frame      0x00000000001168a8       0x20 binaries/newqueue.o
                                         0x38 (size before relaxing)
 .eh_frame      0x00000000001168c8       0x28 binaries/open.o
                                         0x40 (size before relaxing)
 .eh_frame      0x00000000001168f0       0x1c binaries/panic.o
                                         0x34 (size before relaxing)
 .eh_frame      0x000000000011690c      0x12c binaries/pci.o
                                        0x144 (size before relaxing)
 .eh_frame      0x0000000000116a38       0x20 binaries/platinit.o
                                         0x38 (size before relaxing)
 .eh_frame      0x0000000000116a58       0x28 binaries/printloop.o
                                         0x40 (size before relaxing)
 .eh_frame      0x0000000000116a80       0x24 binaries/printnoloop.o
                                         0x3c (size before relaxing)
 .eh_frame      0x0000000000116aa4       0x20 binaries/printsegaddress.o
                                         0x38 (size before relaxing)
 .eh_frame      0x0000000000116ac4       0x2c binaries/ptclear.o
                                         0x44 (size before relaxing)
 .eh_frame      0x0000000000116af0       0x2c binaries/ptcount.o
                                         0x44 (size before relaxing)
 .eh_frame      0x0000000000116b1c       0x2c binaries/ptcreate.o
                                         0x44 (size before relaxing)
 .eh_frame      0x0000000000116b48       0x28 binaries/ptdelete.o
                                         0x40 (size before relaxing)
 .eh_frame      0x0000000000116b70       0x28 binaries/ptinit.o
                                         0x40 (size before relaxing)
 .eh_frame      0x0000000000116b98       0x2c binaries/ptrecv.o
                                         0x44 (size before relaxing)
 .eh_frame      0x0000000000116bc4       0x28 binaries/ptreset.o
                                         0x40 (size before relaxing)
 .eh_frame      0x0000000000116bec       0x2c binaries/ptsend.o
                                         0x44 (size before relaxing)
 .eh_frame      0x0000000000116c18       0x2c binaries/putc.o
                                         0x44 (size before relaxing)
 .eh_frame      0x0000000000116c44       0x24 binaries/quark_irq.o
                                         0x3c (size before relaxing)
 .eh_frame      0x0000000000116c68       0x54 binaries/quark_pdat.o
                                         0x6c (size before relaxing)
 .eh_frame      0x0000000000116cbc       0x44 binaries/queue.o
                                         0x5c (size before relaxing)
 .eh_frame      0x0000000000116d00       0x28 binaries/read.o
                                         0x40 (size before relaxing)
 .eh_frame      0x0000000000116d28       0x20 binaries/ready.o
                                         0x38 (size before relaxing)
 .eh_frame      0x0000000000116d48       0x2c binaries/receive.o
                                         0x44 (size before relaxing)
 .eh_frame      0x0000000000116d74       0x24 binaries/recvclr.o
                                         0x3c (size before relaxing)
 .eh_frame      0x0000000000116d98       0x2c binaries/recvtime.o
                                         0x44 (size before relaxing)
 .eh_frame      0x0000000000116dc4       0x4c binaries/resched.o
                                         0x64 (size before relaxing)
 .eh_frame      0x0000000000116e10       0x2c binaries/resume.o
                                         0x44 (size before relaxing)
 .eh_frame      0x0000000000116e3c       0x28 binaries/seek.o
                                         0x40 (size before relaxing)
 .eh_frame      0x0000000000116e64       0x24 binaries/semcount.o
                                         0x3c (size before relaxing)
 .eh_frame      0x0000000000116e88       0x2c binaries/semcreate.o
                                         0x44 (size before relaxing)
 .eh_frame      0x0000000000116eb4       0x28 binaries/semdelete.o
                                         0x40 (size before relaxing)
 .eh_frame      0x0000000000116edc       0x2c binaries/semreset.o
                                         0x44 (size before relaxing)
 .eh_frame      0x0000000000116f08       0x28 binaries/send.o
                                         0x40 (size before relaxing)
 .eh_frame      0x0000000000116f30       0x28 binaries/signal.o
                                         0x40 (size before relaxing)
 .eh_frame      0x0000000000116f58       0x2c binaries/signaln.o
                                         0x44 (size before relaxing)
 .eh_frame      0x0000000000116f84       0x48 binaries/sleep.o
                                         0x60 (size before relaxing)
 .eh_frame      0x0000000000116fcc       0x2c binaries/stackdepth.o
                                         0x44 (size before relaxing)
 .eh_frame      0x0000000000116ff8       0x30 binaries/stacktrace.o
                                         0x48 (size before relaxing)
 .eh_frame      0x0000000000117028       0x2c binaries/suspend.o
                                         0x44 (size before relaxing)
 .eh_frame      0x0000000000117054       0x28 binaries/unsleep.o
                                         0x40 (size before relaxing)
 .eh_frame      0x000000000011707c       0x20 binaries/userret.o
                                         0x38 (size before relaxing)
 .eh_frame      0x000000000011709c       0x2c binaries/wait.o
                                         0x44 (size before relaxing)
 .eh_frame      0x00000000001170c8       0x20 binaries/wakeup.o
                                         0x38 (size before relaxing)
 .eh_frame      0x00000000001170e8       0x28 binaries/write.o
                                         0x40 (size before relaxing)
 .eh_frame      0x0000000000117110       0x20 binaries/xdone.o
                                         0x38 (size before relaxing)
 .eh_frame      0x0000000000117130       0x24 binaries/yield.o
                                         0x3c (size before relaxing)
 .eh_frame      0x0000000000117154       0x20 binaries/abs.o
                                         0x38 (size before relaxing)
 .eh_frame      0x0000000000117174       0x28 binaries/atoi.o
                                         0x40 (size before relaxing)
 .eh_frame      0x000000000011719c       0x28 binaries/atol.o
                                         0x40 (size before relaxing)
 .eh_frame      0x00000000001171c4       0x20 binaries/bzero.o
                                         0x38 (size before relaxing)
 .eh_frame      0x00000000001171e4       0xac binaries/doprnt.o
                                         0xc4 (size before relaxing)
 .eh_frame      0x0000000000117290       0x30 binaries/doscan.o
                                         0x48 (size before relaxing)
 .eh_frame      0x00000000001172c0       0x5c binaries/fdoprnt.o
                                         0x74 (size before relaxing)
 .eh_frame      0x000000000011731c       0x20 binaries/fgetc.o
                                         0x38 (size before relaxing)
 .eh_frame      0x000000000011733c       0x2c binaries/fgets.o
                                         0x44 (size before relaxing)
 .eh_frame      0x0000000000117368       0x20 binaries/fprintf.o
                                         0x38 (size before relaxing)
 .eh_frame      0x0000000000117388       0x20 binaries/fputc.o
                                         0x38 (size before relaxing)
 .eh_frame      0x00000000001173a8       0x28 binaries/fputs.o
                                         0x40 (size before relaxing)
 .eh_frame      0x00000000001173d0       0x64 binaries/fscanf.o
                                         0x7c (size before relaxing)
 .eh_frame      0x0000000000117434       0x20 binaries/getchar.o
                                         0x38 (size before relaxing)
 .eh_frame      0x0000000000117454       0x20 binaries/labs.o
                                         0x38 (size before relaxing)
 .eh_frame      0x0000000000117474       0x20 binaries/memchr.o
                                         0x38 (size before relaxing)
 .eh_frame      0x0000000000117494       0x28 binaries/memcmp.o
                                         0x40 (size before relaxing)
 .eh_frame      0x00000000001174bc       0x28 binaries/memcpy.o
                                         0x40 (size before relaxing)
 .eh_frame      0x00000000001174e4       0x24 binaries/memset.o
                                         0x3c (size before relaxing)
 .eh_frame      0x0000000000117508       0x20 binaries/printf.o
                                         0x38 (size before relaxing)
 .eh_frame      0x0000000000117528       0x20 binaries/putchar.o
                                         0x38 (size before relaxing)
 .eh_frame      0x0000000000117548       0xa4 binaries/qsort.o
                                         0xbc (size before relaxing)
 .eh_frame      0x00000000001175ec       0x40 binaries/rand.o
                                         0x58 (size before relaxing)
 .eh_frame      0x000000000011762c       0x48 binaries/sprintf.o
                                         0x60 (size before relaxing)
 .eh_frame      0x0000000000117674       0x60 binaries/sscanf.o
                                         0x78 (size before relaxing)
 .eh_frame      0x00000000001176d4       0x24 binaries/strchr.o
                                         0x3c (size before relaxing)
 .eh_frame      0x00000000001176f8       0x24 binaries/strcmp.o
                                         0x3c (size before relaxing)
 .eh_frame      0x000000000011771c       0x20 binaries/strcpy.o
                                         0x38 (size before relaxing)
 .eh_frame      0x000000000011773c       0x20 binaries/strlen.o
                                         0x38 (size before relaxing)
 .eh_frame      0x000000000011775c       0x2c binaries/strncat.o
                                         0x44 (size before relaxing)
 .eh_frame      0x0000000000117788       0x24 binaries/strncmp.o
                                         0x3c (size before relaxing)
 .eh_frame      0x00000000001177ac       0x2c binaries/strncpy.o
                                         0x44 (size before relaxing)
 .eh_frame      0x00000000001177d8       0x20 binaries/strnlen.o
                                         0x38 (size before relaxing)
 .eh_frame      0x00000000001177f8       0x24 binaries/strrchr.o
                                         0x3c (size before relaxing)
 .eh_frame      0x000000000011781c       0x2c binaries/strstr.o
                                         0x44 (size before relaxing)
 .eh_frame      0x0000000000117848       0x28 binaries/ttycontrol.o
                                         0x40 (size before relaxing)
 .eh_frame      0x0000000000117870       0x28 binaries/ttygetc.o
                                         0x40 (size before relaxing)
 .eh_frame      0x0000000000117898       0x84 binaries/ttyhandle_in.o
                                         0x9c (size before relaxing)
 .eh_frame      0x000000000011791c       0x30 binaries/ttyhandle_out.o
                                         0x48 (size before relaxing)
 .eh_frame      0x000000000011794c       0x28 binaries/ttyhandler.o
                                         0x40 (size before relaxing)
 .eh_frame      0x0000000000117974       0x2c binaries/ttyinit.o
                                         0x44 (size before relaxing)
 .eh_frame      0x00000000001179a0       0x20 binaries/ttykickout.o
                                         0x38 (size before relaxing)
 .eh_frame      0x00000000001179c0       0x2c binaries/ttyputc.o
                                         0x44 (size before relaxing)
 .eh_frame      0x00000000001179ec       0x2c binaries/ttyread.o
                                         0x44 (size before relaxing)
 .eh_frame      0x0000000000117a18       0x2c binaries/ttywrite.o
                                         0x44 (size before relaxing)
 .eh_frame      0x0000000000117a44       0x4c binaries/mount.o
                                         0x64 (size before relaxing)
 .eh_frame      0x0000000000117a90       0x30 binaries/naminit.o
                                         0x48 (size before relaxing)
 .eh_frame      0x0000000000117ac0       0x84 binaries/nammap.o
                                         0x9c (size before relaxing)
 .eh_frame      0x0000000000117b44       0x20 binaries/namopen.o
                                         0x38 (size before relaxing)
 .eh_frame      0x0000000000117b64       0x2c binaries/colon2mac.o
                                         0x44 (size before relaxing)
 .eh_frame      0x0000000000117b90       0x20 binaries/ethcontrol.o
                                         0x38 (size before relaxing)
 .eh_frame      0x0000000000117bb0       0x2c binaries/ethhandler.o
                                         0x44 (size before relaxing)
 .eh_frame      0x0000000000117bdc       0x98 binaries/ethinit.o
                                         0xb0 (size before relaxing)
 .eh_frame      0x0000000000117c74       0x54 binaries/ethmcast.o
                                         0x6c (size before relaxing)
 .eh_frame      0x0000000000117cc8       0x30 binaries/ethread.o
                                         0x48 (size before relaxing)
 .eh_frame      0x0000000000117cf8       0x2c binaries/ethwrite.o
                                         0x44 (size before relaxing)
 .eh_frame      0x0000000000117d24       0x24 binaries/rdsbufalloc.o
                                         0x3c (size before relaxing)
 .eh_frame      0x0000000000117d48       0x2c binaries/rdsclose.o
                                         0x44 (size before relaxing)
 .eh_frame      0x0000000000117d74       0x30 binaries/rdscomm.o
                                         0x48 (size before relaxing)
 .eh_frame      0x0000000000117da4       0x2c binaries/rdscontrol.o
                                         0x44 (size before relaxing)
 .eh_frame      0x0000000000117dd0       0x30 binaries/rdsinit.o
                                         0x48 (size before relaxing)
 .eh_frame      0x0000000000117e00       0x30 binaries/rdsopen.o
                                         0x48 (size before relaxing)
 .eh_frame      0x0000000000117e30       0x20 binaries/rdsprocess.o
                                         0x38 (size before relaxing)
 .eh_frame      0x0000000000117e50       0x30 binaries/rdsread.o
                                         0x48 (size before relaxing)
 .eh_frame      0x0000000000117e80       0x30 binaries/rdswrite.o
                                         0x48 (size before relaxing)
 .eh_frame      0x0000000000117eb0       0x20 binaries/ramclose.o
                                         0x38 (size before relaxing)
 .eh_frame      0x0000000000117ed0       0x20 binaries/raminit.o
                                         0x38 (size before relaxing)
 .eh_frame      0x0000000000117ef0       0x20 binaries/ramopen.o
                                         0x38 (size before relaxing)
 .eh_frame      0x0000000000117f10       0x20 binaries/ramread.o
                                         0x38 (size before relaxing)
 .eh_frame      0x0000000000117f30       0x20 binaries/ramwrite.o
                                         0x38 (size before relaxing)
 .eh_frame      0x0000000000117f50       0x28 binaries/lfdballoc.o
                                         0x40 (size before relaxing)
 .eh_frame      0x0000000000117f78       0x24 binaries/lfdbfree.o
                                         0x3c (size before relaxing)
 .eh_frame      0x0000000000117f9c       0x24 binaries/lfflush.o
                                         0x3c (size before relaxing)
 .eh_frame      0x0000000000117fc0       0x20 binaries/lfgetmode.o
                                         0x38 (size before relaxing)
 .eh_frame      0x0000000000117fe0       0x24 binaries/lfiballoc.o
                                         0x3c (size before relaxing)
 .eh_frame      0x0000000000118004       0x20 binaries/lfibclear.o
                                         0x38 (size before relaxing)
 .eh_frame      0x0000000000118024       0x2c binaries/lfibget.o
                                         0x44 (size before relaxing)
 .eh_frame      0x0000000000118050       0x2c binaries/lfibput.o
                                         0x44 (size before relaxing)
 .eh_frame      0x000000000011807c       0x28 binaries/lflclose.o
                                         0x40 (size before relaxing)
 .eh_frame      0x00000000001180a4       0x28 binaries/lflcontrol.o
                                         0x40 (size before relaxing)
 .eh_frame      0x00000000001180cc       0x28 binaries/lflgetc.o
                                         0x40 (size before relaxing)
 .eh_frame      0x00000000001180f4       0x24 binaries/lflinit.o
                                         0x3c (size before relaxing)
 .eh_frame      0x0000000000118118       0x2c binaries/lflputc.o
                                         0x44 (size before relaxing)
 .eh_frame      0x0000000000118144       0x2c binaries/lflread.o
                                         0x44 (size before relaxing)
 .eh_frame      0x0000000000118170       0x2c binaries/lflseek.o
                                         0x44 (size before relaxing)
 .eh_frame      0x000000000011819c       0x2c binaries/lflwrite.o
                                         0x44 (size before relaxing)
 .eh_frame      0x00000000001181c8       0x30 binaries/lfsckfmt.o
                                         0x48 (size before relaxing)
 .eh_frame      0x00000000001181f8       0x30 binaries/lfscreate.o
                                         0x48 (size before relaxing)
 .eh_frame      0x0000000000118228       0x30 binaries/lfsetup.o
                                         0x48 (size before relaxing)
 .eh_frame      0x0000000000118258       0x20 binaries/lfsinit.o
                                         0x38 (size before relaxing)
 .eh_frame      0x0000000000118278       0x30 binaries/lfsopen.o
                                         0x48 (size before relaxing)
 .eh_frame      0x00000000001182a8       0x30 binaries/lftruncate.o
                                         0x48 (size before relaxing)
 .eh_frame      0x00000000001182d8       0x20 binaries/rflclose.o
                                         0x38 (size before relaxing)
 .eh_frame      0x00000000001182f8       0x20 binaries/rflgetc.o
                                         0x38 (size before relaxing)
 .eh_frame      0x0000000000118318       0x20 binaries/rflinit.o
                                         0x38 (size before relaxing)
 .eh_frame      0x0000000000118338       0x20 binaries/rflputc.o
                                         0x38 (size before relaxing)
 .eh_frame      0x0000000000118358       0x30 binaries/rflread.o
                                         0x48 (size before relaxing)
 .eh_frame      0x0000000000118388       0x20 binaries/rflseek.o
                                         0x38 (size before relaxing)
 .eh_frame      0x00000000001183a8       0x30 binaries/rflwrite.o
                                         0x48 (size before relaxing)
 .eh_frame      0x00000000001183d8       0x30 binaries/rfscomm.o
                                         0x48 (size before relaxing)
 .eh_frame      0x0000000000118408       0x2c binaries/rfscontrol.o
                                         0x44 (size before relaxing)
 .eh_frame      0x0000000000118434       0x20 binaries/rfsgetmode.o
                                         0x38 (size before relaxing)
 .eh_frame      0x0000000000118454       0x20 binaries/rfsinit.o
                                         0x38 (size before relaxing)
 .eh_frame      0x0000000000118474       0x20 binaries/rfsndmsg.o
                                         0x38 (size before relaxing)
 .eh_frame      0x0000000000118494       0x2c binaries/rfsopen.o
                                         0x44 (size before relaxing)
 .eh_frame      0x00000000001184c0       0xec binaries/arp.o
                                        0x104 (size before relaxing)
 .eh_frame      0x00000000001185ac       0xd0 binaries/dhcp.o
                                         0xe8 (size before relaxing)
 .eh_frame      0x000000000011867c       0x2c binaries/dot2ip.o
                                         0x44 (size before relaxing)
 .eh_frame      0x00000000001186a8       0x60 binaries/hexdump.o
                                         0x78 (size before relaxing)
 .eh_frame      0x0000000000118708      0x194 binaries/icmp.o
                                        0x1ac (size before relaxing)
 .eh_frame      0x000000000011889c      0x144 binaries/ip.o
                                        0x15c (size before relaxing)
 .eh_frame      0x00000000001189e0       0x7c binaries/net.o
                                         0x94 (size before relaxing)
 .eh_frame      0x0000000000118a5c       0x24 binaries/netstart.o
                                         0x3c (size before relaxing)
 .eh_frame      0x0000000000118a80       0x50 binaries/pdump.o
                                         0x68 (size before relaxing)
 .eh_frame      0x0000000000118ad0       0x80 binaries/tftp.o
                                         0x98 (size before relaxing)
 .eh_frame      0x0000000000118b50      0x1a4 binaries/udp.o
                                        0x1bc (size before relaxing)
 .eh_frame      0x0000000000118cf4       0x2c binaries/addargs.o
                                         0x44 (size before relaxing)
 .eh_frame      0x0000000000118d20       0x30 binaries/lexan.o
                                         0x48 (size before relaxing)
 .eh_frame      0x0000000000118d50       0x30 binaries/shell.o
                                         0x48 (size before relaxing)
 .eh_frame      0x0000000000118d80       0x2c binaries/xsh_argecho.o
                                         0x44 (size before relaxing)
 .eh_frame      0x0000000000118dac       0x30 binaries/xsh_arp.o
                                         0x48 (size before relaxing)
 .eh_frame      0x0000000000118ddc       0x30 binaries/xsh_cat.o
                                         0x48 (size before relaxing)
 .eh_frame      0x0000000000118e0c       0x20 binaries/xsh_clear.o
                                         0x38 (size before relaxing)
 .eh_frame      0x0000000000118e2c       0x28 binaries/xsh_date.o
                                         0x40 (size before relaxing)
 .eh_frame      0x0000000000118e54       0x28 binaries/xsh_devdump.o
                                         0x40 (size before relaxing)
 .eh_frame      0x0000000000118e7c       0x2c binaries/xsh_echo.o
                                         0x44 (size before relaxing)
 .eh_frame      0x0000000000118ea8       0x20 binaries/xsh_exit.o
                                         0x38 (size before relaxing)
 .eh_frame      0x0000000000118ec8       0x30 binaries/xsh_help.o
                                         0x48 (size before relaxing)
 .eh_frame      0x0000000000118ef8       0x2c binaries/xsh_ipaddr.o
                                         0x44 (size before relaxing)
 .eh_frame      0x0000000000118f24       0x2c binaries/xsh_kill.o
                                         0x44 (size before relaxing)
 .eh_frame      0x0000000000118f50       0x58 binaries/xsh_memdump.o
                                         0x70 (size before relaxing)
 .eh_frame      0x0000000000118fa8       0x30 binaries/xsh_memstat.o
                                         0x48 (size before relaxing)
 .eh_frame      0x0000000000118fd8       0x30 binaries/xsh_ping.o
                                         0x48 (size before relaxing)
 .eh_frame      0x0000000000119008       0x20 binaries/xsh_poo.o
                                         0x38 (size before relaxing)
 .eh_frame      0x0000000000119028       0x30 binaries/xsh_ps.o
                                         0x48 (size before relaxing)
 .eh_frame      0x0000000000119058       0x2c binaries/xsh_rdstest.o
                                         0x44 (size before relaxing)
 .eh_frame      0x0000000000119084       0x2c binaries/xsh_sleep.o
                                         0x44 (size before relaxing)
 .eh_frame      0x00000000001190b0       0x2c binaries/xsh_udpdump.o
                                         0x44 (size before relaxing)
 .eh_frame      0x00000000001190dc       0x30 binaries/xsh_udpecho.o
                                         0x48 (size before relaxing)
 .eh_frame      0x000000000011910c       0x30 binaries/xsh_udpeserver.o
                                         0x48 (size before relaxing)
 .eh_frame      0x000000000011913c       0x30 binaries/xsh_uptime.o
                                         0x48 (size before relaxing)

.iplt           0x0000000000119170        0x0
 .iplt          0x0000000000000000        0x0 binaries/start.o

.rel.dyn        0x000000000011916c        0x0
 .rel.iplt      0x0000000000000000        0x0 binaries/start.o
 .rel.text      0x0000000000000000        0x0 binaries/start.o
 .rel.data      0x0000000000000000        0x0 binaries/start.o
 .rel.rodata    0x0000000000000000        0x0 binaries/start.o

.data           0x0000000000119180      0xe80
                0x0000000000119180                data = ABSOLUTE (.)
 *(.data .data.*)
 .data          0x0000000000119180      0x85a binaries/start.o
                0x0000000000119180                gdt
                0x00000000001191d0                idt
                0x00000000001199d6                cpudelay
 *fill*         0x00000000001199da        0x6 
 .data          0x00000000001199e0       0x88 binaries/ascdate.o
                0x00000000001199e0                Date
 .data          0x0000000000119a68        0x0 binaries/bufinit.o
 .data          0x0000000000119a68        0x0 binaries/chprio.o
 .data          0x0000000000119a68        0x4 binaries/clkhandler.o
 .data          0x0000000000119a6c        0x0 binaries/clkinit.o
 .data          0x0000000000119a6c        0x0 binaries/close.o
 *fill*         0x0000000000119a6c       0x14 
 .data          0x0000000000119a80      0x30c binaries/conf.o
                0x0000000000119a80                devtab
 .data          0x0000000000119d8c        0x0 binaries/control.o
 .data          0x0000000000119d8c        0x0 binaries/cpuintensive.o
 .data          0x0000000000119d8c        0x4 binaries/create.o
 .data          0x0000000000119d90        0x0 binaries/early_imr.o
 *fill*         0x0000000000119d90       0x10 
 .data          0x0000000000119da0       0x40 binaries/evec.o
                0x0000000000119da0                inames
 .data          0x0000000000119de0        0x0 binaries/freebuf.o
 .data          0x0000000000119de0        0x0 binaries/freemem.o
 .data          0x0000000000119de0        0x0 binaries/getbuf.o
 .data          0x0000000000119de0        0x0 binaries/getc.o
 .data          0x0000000000119de0        0x0 binaries/getdev.o
 .data          0x0000000000119de0        0x0 binaries/getitem.o
 .data          0x0000000000119de0        0x0 binaries/getmem.o
 .data          0x0000000000119de0        0x0 binaries/getpid.o
 .data          0x0000000000119de0        0x0 binaries/getprio.o
 .data          0x0000000000119de0        0x0 binaries/getstk.o
 .data          0x0000000000119de0        0x0 binaries/gettime.o
 .data          0x0000000000119de0        0x0 binaries/getutime.o
 .data          0x0000000000119de0        0x0 binaries/init.o
 .data          0x0000000000119de0        0x0 binaries/initialize.o
 .data          0x0000000000119de0        0x0 binaries/insert.o
 .data          0x0000000000119de0        0x0 binaries/insertd.o
 .data          0x0000000000119de0        0x0 binaries/ioerr.o
 .data          0x0000000000119de0        0x0 binaries/iointensive.o
 .data          0x0000000000119de0        0x0 binaries/ionull.o
 .data          0x0000000000119de0        0x0 binaries/kill.o
 .data          0x0000000000119de0        0x0 binaries/kprintf.o
 .data          0x0000000000119de0        0x0 binaries/lab0app1.o
 .data          0x0000000000119de0        0x0 binaries/lab0app2.o
 .data          0x0000000000119de0        0x0 binaries/main.o
 .data          0x0000000000119de0        0x0 binaries/mark.o
 .data          0x0000000000119de0       0x48 binaries/meminit.o
                0x0000000000119de0                gdt_copy
                0x0000000000119e20                bootinfo
                0x0000000000119e24                bootsign
 .data          0x0000000000119e28        0x0 binaries/mkbufpool.o
 .data          0x0000000000119e28        0x0 binaries/myattacker.o
 .data          0x0000000000119e28        0x0 binaries/myattackermalware.o
 .data          0x0000000000119e28        0x0 binaries/myvictim.o
 .data          0x0000000000119e28        0x2 binaries/newqueue.o
 .data          0x0000000000119e2a        0x0 binaries/open.o
 .data          0x0000000000119e2a        0x0 binaries/panic.o
 .data          0x0000000000119e2a        0x0 binaries/pci.o
 .data          0x0000000000119e2a        0x0 binaries/platinit.o
 .data          0x0000000000119e2a        0x0 binaries/printloop.o
 .data          0x0000000000119e2a        0x0 binaries/printnoloop.o
 .data          0x0000000000119e2a        0x0 binaries/printsegaddress.o
 .data          0x0000000000119e2a        0x0 binaries/ptclear.o
 .data          0x0000000000119e2a        0x0 binaries/ptcount.o
 .data          0x0000000000119e2a        0x0 binaries/ptcreate.o
 .data          0x0000000000119e2a        0x0 binaries/ptdelete.o
 .data          0x0000000000119e2a        0x0 binaries/ptinit.o
 .data          0x0000000000119e2a        0x0 binaries/ptrecv.o
 .data          0x0000000000119e2a        0x0 binaries/ptreset.o
 .data          0x0000000000119e2a        0x0 binaries/ptsend.o
 .data          0x0000000000119e2a        0x0 binaries/putc.o
 .data          0x0000000000119e2a        0x0 binaries/quark_irq.o
 .data          0x0000000000119e2a        0x0 binaries/quark_pdat.o
 .data          0x0000000000119e2a        0x0 binaries/queue.o
 .data          0x0000000000119e2a        0x0 binaries/read.o
 .data          0x0000000000119e2a        0x0 binaries/ready.o
 .data          0x0000000000119e2a        0x0 binaries/receive.o
 .data          0x0000000000119e2a        0x0 binaries/recvclr.o
 .data          0x0000000000119e2a        0x0 binaries/recvtime.o
 .data          0x0000000000119e2a        0x0 binaries/resched.o
 .data          0x0000000000119e2a        0x0 binaries/resume.o
 .data          0x0000000000119e2a        0x0 binaries/seek.o
 .data          0x0000000000119e2a        0x0 binaries/semcount.o
 .data          0x0000000000119e2a        0x0 binaries/semcreate.o
 .data          0x0000000000119e2a        0x0 binaries/semdelete.o
 .data          0x0000000000119e2a        0x0 binaries/semreset.o
 .data          0x0000000000119e2a        0x0 binaries/send.o
 .data          0x0000000000119e2a        0x0 binaries/signal.o
 .data          0x0000000000119e2a        0x0 binaries/signaln.o
 .data          0x0000000000119e2a        0x0 binaries/sleep.o
 .data          0x0000000000119e2a        0x0 binaries/stackdepth.o
 .data          0x0000000000119e2a        0x0 binaries/stacktrace.o
 .data          0x0000000000119e2a        0x0 binaries/suspend.o
 .data          0x0000000000119e2a        0x0 binaries/unsleep.o
 .data          0x0000000000119e2a        0x0 binaries/userret.o
 .data          0x0000000000119e2a        0x0 binaries/wait.o
 .data          0x0000000000119e2a        0x0 binaries/wakeup.o
 .data          0x0000000000119e2a        0x0 binaries/write.o
 .data          0x0000000000119e2a        0x0 binaries/xdone.o
 .data          0x0000000000119e2a        0x0 binaries/yield.o
 .data          0x0000000000119e2a        0x0 binaries/abs.o
 .data          0x0000000000119e2a        0x0 binaries/atoi.o
 .data          0x0000000000119e2a        0x0 binaries/atol.o
 .data          0x0000000000119e2a        0x0 binaries/bzero.o
 .data          0x0000000000119e2a        0x0 binaries/ctype_.o
 .data          0x0000000000119e2a        0x0 binaries/doprnt.o
 *fill*         0x0000000000119e2a       0x16 
 .data          0x0000000000119e40       0x80 binaries/doscan.o
                0x0000000000119e40                _sctab
 .data          0x0000000000119ec0        0x0 binaries/fdoprnt.o
 .data          0x0000000000119ec0        0x0 binaries/fgetc.o
 .data          0x0000000000119ec0        0x0 binaries/fgets.o
 .data          0x0000000000119ec0        0x0 binaries/fprintf.o
 .data          0x0000000000119ec0        0x0 binaries/fputc.o
 .data          0x0000000000119ec0        0x0 binaries/fputs.o
 .data          0x0000000000119ec0        0x0 binaries/fscanf.o
 .data          0x0000000000119ec0        0x0 binaries/getchar.o
 .data          0x0000000000119ec0        0x0 binaries/labs.o
 .data          0x0000000000119ec0        0x0 binaries/memchr.o
 .data          0x0000000000119ec0        0x0 binaries/memcmp.o
 .data          0x0000000000119ec0        0x0 binaries/memcpy.o
 .data          0x0000000000119ec0        0x0 binaries/memset.o
 .data          0x0000000000119ec0        0x0 binaries/printf.o
 .data          0x0000000000119ec0        0x0 binaries/putchar.o
 .data          0x0000000000119ec0        0x0 binaries/qsort.o
 .data          0x0000000000119ec0        0x4 binaries/rand.o
 .data          0x0000000000119ec4        0x0 binaries/sprintf.o
 .data          0x0000000000119ec4        0x0 binaries/sscanf.o
 .data          0x0000000000119ec4        0x0 binaries/strchr.o
 .data          0x0000000000119ec4        0x0 binaries/strcmp.o
 .data          0x0000000000119ec4        0x0 binaries/strcpy.o
 .data          0x0000000000119ec4        0x0 binaries/strlen.o
 .data          0x0000000000119ec4        0x0 binaries/strncat.o
 .data          0x0000000000119ec4        0x0 binaries/strncmp.o
 .data          0x0000000000119ec4        0x0 binaries/strncpy.o
 .data          0x0000000000119ec4        0x0 binaries/strnlen.o
 .data          0x0000000000119ec4        0x0 binaries/strrchr.o
 .data          0x0000000000119ec4        0x0 binaries/strstr.o
 .data          0x0000000000119ec4        0x0 binaries/ttycontrol.o
 .data          0x0000000000119ec4        0x0 binaries/ttygetc.o
 .data          0x0000000000119ec4        0x0 binaries/ttyhandle_in.o
 .data          0x0000000000119ec4        0x0 binaries/ttyhandle_out.o
 .data          0x0000000000119ec4        0x0 binaries/ttyhandler.o
 .data          0x0000000000119ec4        0x0 binaries/ttyinit.o
 .data          0x0000000000119ec4        0x0 binaries/ttykickout.o
 .data          0x0000000000119ec4        0x0 binaries/ttyputc.o
 .data          0x0000000000119ec4        0x0 binaries/ttyread.o
 .data          0x0000000000119ec4        0x0 binaries/ttywrite.o
 .data          0x0000000000119ec4        0x0 binaries/mount.o
 .data          0x0000000000119ec4        0x0 binaries/naminit.o
 .data          0x0000000000119ec4        0x0 binaries/nammap.o
 .data          0x0000000000119ec4        0x0 binaries/namopen.o
 .data          0x0000000000119ec4        0x0 binaries/colon2mac.o
 .data          0x0000000000119ec4        0x0 binaries/ethcontrol.o
 .data          0x0000000000119ec4        0x0 binaries/ethhandler.o
 .data          0x0000000000119ec4        0x0 binaries/ethinit.o
 .data          0x0000000000119ec4        0x0 binaries/ethmcast.o
 .data          0x0000000000119ec4        0x0 binaries/ethread.o
 .data          0x0000000000119ec4        0x0 binaries/ethwrite.o
 .data          0x0000000000119ec4        0x0 binaries/rdsbufalloc.o
 .data          0x0000000000119ec4        0x0 binaries/rdsclose.o
 .data          0x0000000000119ec4        0x0 binaries/rdscomm.o
 .data          0x0000000000119ec4        0x0 binaries/rdscontrol.o
 .data          0x0000000000119ec4        0x0 binaries/rdsinit.o
 .data          0x0000000000119ec4        0x0 binaries/rdsopen.o
 .data          0x0000000000119ec4        0x0 binaries/rdsprocess.o
 .data          0x0000000000119ec4        0x0 binaries/rdsread.o
 .data          0x0000000000119ec4        0x0 binaries/rdswrite.o
 .data          0x0000000000119ec4        0x0 binaries/ramclose.o
 .data          0x0000000000119ec4        0x0 binaries/raminit.o
 .data          0x0000000000119ec4        0x0 binaries/ramopen.o
 .data          0x0000000000119ec4        0x0 binaries/ramread.o
 .data          0x0000000000119ec4        0x0 binaries/ramwrite.o
 .data          0x0000000000119ec4        0x0 binaries/lfdballoc.o
 .data          0x0000000000119ec4        0x0 binaries/lfdbfree.o
 .data          0x0000000000119ec4        0x0 binaries/lfflush.o
 .data          0x0000000000119ec4        0x0 binaries/lfgetmode.o
 .data          0x0000000000119ec4        0x0 binaries/lfiballoc.o
 .data          0x0000000000119ec4        0x0 binaries/lfibclear.o
 .data          0x0000000000119ec4        0x0 binaries/lfibget.o
 .data          0x0000000000119ec4        0x0 binaries/lfibput.o
 .data          0x0000000000119ec4        0x0 binaries/lflclose.o
 .data          0x0000000000119ec4        0x0 binaries/lflcontrol.o
 .data          0x0000000000119ec4        0x0 binaries/lflgetc.o
 .data          0x0000000000119ec4        0x0 binaries/lflinit.o
 .data          0x0000000000119ec4        0x0 binaries/lflputc.o
 .data          0x0000000000119ec4        0x0 binaries/lflread.o
 .data          0x0000000000119ec4        0x0 binaries/lflseek.o
 .data          0x0000000000119ec4        0x0 binaries/lflwrite.o
 .data          0x0000000000119ec4        0x0 binaries/lfsckfmt.o
 .data          0x0000000000119ec4        0x0 binaries/lfscreate.o
 .data          0x0000000000119ec4        0x0 binaries/lfsetup.o
 .data          0x0000000000119ec4        0x0 binaries/lfsinit.o
 .data          0x0000000000119ec4        0x0 binaries/lfsopen.o
 .data          0x0000000000119ec4        0x0 binaries/lftruncate.o
 .data          0x0000000000119ec4        0x0 binaries/rflclose.o
 .data          0x0000000000119ec4        0x0 binaries/rflgetc.o
 .data          0x0000000000119ec4        0x0 binaries/rflinit.o
 .data          0x0000000000119ec4        0x0 binaries/rflputc.o
 .data          0x0000000000119ec4        0x0 binaries/rflread.o
 .data          0x0000000000119ec4        0x0 binaries/rflseek.o
 .data          0x0000000000119ec4        0x0 binaries/rflwrite.o
 .data          0x0000000000119ec4        0x0 binaries/rfscomm.o
 .data          0x0000000000119ec4        0x0 binaries/rfscontrol.o
 .data          0x0000000000119ec4        0x0 binaries/rfsgetmode.o
 .data          0x0000000000119ec4        0x0 binaries/rfsinit.o
 .data          0x0000000000119ec4        0x0 binaries/rfsndmsg.o
 .data          0x0000000000119ec4        0x0 binaries/rfsopen.o
 .data          0x0000000000119ec4        0x0 binaries/arp.o
 .data          0x0000000000119ec4        0x0 binaries/dhcp.o
 .data          0x0000000000119ec4        0x0 binaries/dot2ip.o
 .data          0x0000000000119ec4        0x0 binaries/hexdump.o
 .data          0x0000000000119ec4        0x4 binaries/icmp.o
 .data          0x0000000000119ec8        0x0 binaries/ip.o
 .data          0x0000000000119ec8        0x0 binaries/net.o
 .data          0x0000000000119ec8        0x0 binaries/netstart.o
 .data          0x0000000000119ec8        0x0 binaries/pdump.o
 .data          0x0000000000119ec8        0x0 binaries/tftp.o
 .data          0x0000000000119ec8        0x4 binaries/udp.o
 .data          0x0000000000119ecc        0x0 binaries/addargs.o
 .data          0x0000000000119ecc        0x0 binaries/lexan.o
 .data          0x0000000000119ecc        0x4 binaries/shell.o
                0x0000000000119ecc                ncmd
 .data          0x0000000000119ed0        0x0 binaries/xsh_argecho.o
 .data          0x0000000000119ed0        0x0 binaries/xsh_arp.o
 .data          0x0000000000119ed0        0x0 binaries/xsh_cat.o
 .data          0x0000000000119ed0        0x0 binaries/xsh_clear.o
 .data          0x0000000000119ed0        0x0 binaries/xsh_date.o
 .data          0x0000000000119ed0        0x0 binaries/xsh_devdump.o
 .data          0x0000000000119ed0        0x0 binaries/xsh_echo.o
 .data          0x0000000000119ed0        0x0 binaries/xsh_exit.o
 .data          0x0000000000119ed0        0x0 binaries/xsh_help.o
 .data          0x0000000000119ed0        0x0 binaries/xsh_ipaddr.o
 .data          0x0000000000119ed0        0x0 binaries/xsh_kill.o
 .data          0x0000000000119ed0        0x0 binaries/xsh_memdump.o
 .data          0x0000000000119ed0        0x0 binaries/xsh_memstat.o
 .data          0x0000000000119ed0        0x0 binaries/xsh_ping.o
 .data          0x0000000000119ed0        0x0 binaries/xsh_poo.o
 .data          0x0000000000119ed0        0x0 binaries/xsh_ps.o
 .data          0x0000000000119ed0        0x0 binaries/xsh_rdstest.o
 .data          0x0000000000119ed0        0x0 binaries/xsh_sleep.o
 .data          0x0000000000119ed0        0x0 binaries/xsh_udpdump.o
 .data          0x0000000000119ed0        0x0 binaries/xsh_udpecho.o
 .data          0x0000000000119ed0        0x0 binaries/xsh_udpeserver.o
 .data          0x0000000000119ed0        0x0 binaries/xsh_uptime.o
 .data          0x0000000000119ed0        0x0 binaries/clkdisp.o
 .data          0x0000000000119ed0        0x0 binaries/ctxsw.o
 .data          0x0000000000119ed0        0x0 binaries/host2netl.o
 .data          0x0000000000119ed0        0x0 binaries/intr.o
 .data          0x0000000000119ed0        0x0 binaries/ttydispatch.o
 .data          0x0000000000119ed0        0x0 binaries/ethdispatch.o
                0x0000000000119ed0                edata = ABSOLUTE (.)
                0x000000000011a000                . = ALIGN (0x1000)
 *fill*         0x0000000000119ed0      0x130 

.igot.plt       0x000000000011a000        0x0
 .igot.plt      0x0000000000000000        0x0 binaries/start.o

.bss            0x000000000011a000    0x20000
                0x000000000011a000                bss = ABSOLUTE (.)
 *(.bss .bss.*)
 .bss           0x000000000011a000        0x0 binaries/start.o
 .bss           0x000000000011a000        0x0 binaries/ascdate.o
 .bss           0x000000000011a000        0x0 binaries/bufinit.o
 .bss           0x000000000011a000        0x0 binaries/chprio.o
 .bss           0x000000000011a000        0x0 binaries/clkhandler.o
 .bss           0x000000000011a000        0x4 binaries/clkinit.o
                0x000000000011a000                ctr1000
 .bss           0x000000000011a004        0x0 binaries/close.o
 .bss           0x000000000011a004        0x0 binaries/conf.o
 .bss           0x000000000011a004        0x0 binaries/control.o
 .bss           0x000000000011a004        0x0 binaries/cpuintensive.o
 .bss           0x000000000011a004        0x0 binaries/create.o
 .bss           0x000000000011a004        0x0 binaries/early_imr.o
 .bss           0x000000000011a004        0x0 binaries/evec.o
 .bss           0x000000000011a004        0x0 binaries/freebuf.o
 .bss           0x000000000011a004        0x0 binaries/freemem.o
 .bss           0x000000000011a004        0x0 binaries/getbuf.o
 .bss           0x000000000011a004        0x0 binaries/getc.o
 .bss           0x000000000011a004        0x0 binaries/getdev.o
 .bss           0x000000000011a004        0x0 binaries/getitem.o
 .bss           0x000000000011a004        0x0 binaries/getmem.o
 .bss           0x000000000011a004        0x0 binaries/getpid.o
 .bss           0x000000000011a004        0x0 binaries/getprio.o
 .bss           0x000000000011a004        0x0 binaries/getstk.o
 .bss           0x000000000011a004        0x0 binaries/gettime.o
 .bss           0x000000000011a004        0x0 binaries/getutime.o
 .bss           0x000000000011a004        0x0 binaries/init.o
 .bss           0x000000000011a004        0x0 binaries/initialize.o
 .bss           0x000000000011a004        0x0 binaries/insert.o
 .bss           0x000000000011a004        0x0 binaries/insertd.o
 .bss           0x000000000011a004        0x0 binaries/ioerr.o
 .bss           0x000000000011a004        0x0 binaries/iointensive.o
 .bss           0x000000000011a004        0x0 binaries/ionull.o
 .bss           0x000000000011a004        0x0 binaries/kill.o
 .bss           0x000000000011a004        0x0 binaries/kprintf.o
 .bss           0x000000000011a004        0x0 binaries/lab0app1.o
 .bss           0x000000000011a004        0x0 binaries/lab0app2.o
 .bss           0x000000000011a004        0x4 binaries/main.o
                0x000000000011a004                myvictimglobal
 .bss           0x000000000011a008        0x0 binaries/mark.o
 .bss           0x000000000011a008        0x0 binaries/meminit.o
 .bss           0x000000000011a008        0x0 binaries/mkbufpool.o
 .bss           0x000000000011a008        0x0 binaries/myattacker.o
 .bss           0x000000000011a008        0x0 binaries/myattackermalware.o
 .bss           0x000000000011a008        0x0 binaries/myvictim.o
 .bss           0x000000000011a008        0x0 binaries/newqueue.o
 .bss           0x000000000011a008        0x0 binaries/open.o
 .bss           0x000000000011a008        0x0 binaries/panic.o
 .bss           0x000000000011a008        0x0 binaries/pci.o
 .bss           0x000000000011a008        0x0 binaries/platinit.o
 .bss           0x000000000011a008        0x0 binaries/printloop.o
 .bss           0x000000000011a008        0x0 binaries/printnoloop.o
 .bss           0x000000000011a008        0x0 binaries/printsegaddress.o
 .bss           0x000000000011a008        0x0 binaries/ptclear.o
 .bss           0x000000000011a008        0x0 binaries/ptcount.o
 .bss           0x000000000011a008        0x0 binaries/ptcreate.o
 .bss           0x000000000011a008        0x0 binaries/ptdelete.o
 .bss           0x000000000011a008        0x0 binaries/ptinit.o
 .bss           0x000000000011a008        0x0 binaries/ptrecv.o
 .bss           0x000000000011a008        0x0 binaries/ptreset.o
 .bss           0x000000000011a008        0x0 binaries/ptsend.o
 .bss           0x000000000011a008        0x0 binaries/putc.o
 .bss           0x000000000011a008        0x0 binaries/quark_irq.o
 .bss           0x000000000011a008        0x0 binaries/quark_pdat.o
 .bss           0x000000000011a008        0x0 binaries/queue.o
 .bss           0x000000000011a008        0x0 binaries/read.o
 .bss           0x000000000011a008        0x0 binaries/ready.o
 .bss           0x000000000011a008        0x0 binaries/receive.o
 .bss           0x000000000011a008        0x0 binaries/recvclr.o
 .bss           0x000000000011a008        0x0 binaries/recvtime.o
 .bss           0x000000000011a008        0x0 binaries/resched.o
 .bss           0x000000000011a008        0x0 binaries/resume.o
 .bss           0x000000000011a008        0x0 binaries/seek.o
 .bss           0x000000000011a008        0x0 binaries/semcount.o
 .bss           0x000000000011a008        0x4 binaries/semcreate.o
 .bss           0x000000000011a00c        0x0 binaries/semdelete.o
 .bss           0x000000000011a00c        0x0 binaries/semreset.o
 .bss           0x000000000011a00c        0x0 binaries/send.o
 .bss           0x000000000011a00c        0x0 binaries/signal.o
 .bss           0x000000000011a00c        0x0 binaries/signaln.o
 .bss           0x000000000011a00c        0x0 binaries/sleep.o
 .bss           0x000000000011a00c        0x0 binaries/stackdepth.o
 .bss           0x000000000011a00c        0x8 binaries/stacktrace.o
 .bss           0x000000000011a014        0x0 binaries/suspend.o
 .bss           0x000000000011a014        0x0 binaries/unsleep.o
 .bss           0x000000000011a014        0x0 binaries/userret.o
 .bss           0x000000000011a014        0x0 binaries/wait.o
 .bss           0x000000000011a014        0x0 binaries/wakeup.o
 .bss           0x000000000011a014        0x0 binaries/write.o
 .bss           0x000000000011a014        0x0 binaries/xdone.o
 .bss           0x000000000011a014        0x0 binaries/yield.o
 .bss           0x000000000011a014        0x0 binaries/abs.o
 .bss           0x000000000011a014        0x0 binaries/atoi.o
 .bss           0x000000000011a014        0x0 binaries/atol.o
 .bss           0x000000000011a014        0x0 binaries/bzero.o
 .bss           0x000000000011a014        0x0 binaries/ctype_.o
 .bss           0x000000000011a014        0x0 binaries/doprnt.o
 .bss           0x000000000011a014        0x0 binaries/doscan.o
 .bss           0x000000000011a014        0x0 binaries/fdoprnt.o
 .bss           0x000000000011a014        0x0 binaries/fgetc.o
 .bss           0x000000000011a014        0x0 binaries/fgets.o
 .bss           0x000000000011a014        0x0 binaries/fprintf.o
 .bss           0x000000000011a014        0x0 binaries/fputc.o
 .bss           0x000000000011a014        0x0 binaries/fputs.o
 .bss           0x000000000011a014        0x0 binaries/fscanf.o
 .bss           0x000000000011a014        0x0 binaries/getchar.o
 .bss           0x000000000011a014        0x0 binaries/labs.o
 .bss           0x000000000011a014        0x0 binaries/memchr.o
 .bss           0x000000000011a014        0x0 binaries/memcmp.o
 .bss           0x000000000011a014        0x0 binaries/memcpy.o
 .bss           0x000000000011a014        0x0 binaries/memset.o
 .bss           0x000000000011a014        0x0 binaries/printf.o
 .bss           0x000000000011a014        0x0 binaries/putchar.o
 .bss           0x000000000011a014        0x8 binaries/qsort.o
 .bss           0x000000000011a01c        0x0 binaries/rand.o
 .bss           0x000000000011a01c        0x0 binaries/sprintf.o
 .bss           0x000000000011a01c        0x0 binaries/sscanf.o
 .bss           0x000000000011a01c        0x0 binaries/strchr.o
 .bss           0x000000000011a01c        0x0 binaries/strcmp.o
 .bss           0x000000000011a01c        0x0 binaries/strcpy.o
 .bss           0x000000000011a01c        0x0 binaries/strlen.o
 .bss           0x000000000011a01c        0x0 binaries/strncat.o
 .bss           0x000000000011a01c        0x0 binaries/strncmp.o
 .bss           0x000000000011a01c        0x0 binaries/strncpy.o
 .bss           0x000000000011a01c        0x0 binaries/strnlen.o
 .bss           0x000000000011a01c        0x0 binaries/strrchr.o
 .bss           0x000000000011a01c        0x0 binaries/strstr.o
 .bss           0x000000000011a01c        0x0 binaries/ttycontrol.o
 .bss           0x000000000011a01c        0x0 binaries/ttygetc.o
 .bss           0x000000000011a01c        0x0 binaries/ttyhandle_in.o
 .bss           0x000000000011a01c        0x0 binaries/ttyhandle_out.o
 .bss           0x000000000011a01c        0x0 binaries/ttyhandler.o
 .bss           0x000000000011a01c        0x0 binaries/ttyinit.o
 .bss           0x000000000011a01c        0x0 binaries/ttykickout.o
 .bss           0x000000000011a01c        0x0 binaries/ttyputc.o
 .bss           0x000000000011a01c        0x0 binaries/ttyread.o
 .bss           0x000000000011a01c        0x0 binaries/ttywrite.o
 .bss           0x000000000011a01c        0x0 binaries/mount.o
 .bss           0x000000000011a01c        0x0 binaries/naminit.o
 .bss           0x000000000011a01c        0x0 binaries/nammap.o
 .bss           0x000000000011a01c        0x0 binaries/namopen.o
 .bss           0x000000000011a01c        0x0 binaries/colon2mac.o
 .bss           0x000000000011a01c        0x0 binaries/ethcontrol.o
 .bss           0x000000000011a01c        0x0 binaries/ethhandler.o
 .bss           0x000000000011a01c        0x0 binaries/ethinit.o
 .bss           0x000000000011a01c        0x0 binaries/ethmcast.o
 .bss           0x000000000011a01c        0x0 binaries/ethread.o
 .bss           0x000000000011a01c        0x0 binaries/ethwrite.o
 .bss           0x000000000011a01c        0x0 binaries/rdsbufalloc.o
 .bss           0x000000000011a01c        0x0 binaries/rdsclose.o
 .bss           0x000000000011a01c        0x0 binaries/rdscomm.o
 .bss           0x000000000011a01c        0x0 binaries/rdscontrol.o
 .bss           0x000000000011a01c        0x0 binaries/rdsinit.o
 .bss           0x000000000011a01c        0x0 binaries/rdsopen.o
 .bss           0x000000000011a01c        0x0 binaries/rdsprocess.o
 .bss           0x000000000011a01c        0x0 binaries/rdsread.o
 .bss           0x000000000011a01c        0x0 binaries/rdswrite.o
 .bss           0x000000000011a01c        0x0 binaries/ramclose.o
 .bss           0x000000000011a01c        0x0 binaries/raminit.o
 .bss           0x000000000011a01c        0x0 binaries/ramopen.o
 .bss           0x000000000011a01c        0x0 binaries/ramread.o
 .bss           0x000000000011a01c        0x0 binaries/ramwrite.o
 .bss           0x000000000011a01c        0x0 binaries/lfdballoc.o
 .bss           0x000000000011a01c        0x0 binaries/lfdbfree.o
 .bss           0x000000000011a01c        0x0 binaries/lfflush.o
 .bss           0x000000000011a01c        0x0 binaries/lfgetmode.o
 .bss           0x000000000011a01c        0x0 binaries/lfiballoc.o
 .bss           0x000000000011a01c        0x0 binaries/lfibclear.o
 .bss           0x000000000011a01c        0x0 binaries/lfibget.o
 .bss           0x000000000011a01c        0x0 binaries/lfibput.o
 .bss           0x000000000011a01c        0x0 binaries/lflclose.o
 .bss           0x000000000011a01c        0x0 binaries/lflcontrol.o
 .bss           0x000000000011a01c        0x0 binaries/lflgetc.o
 .bss           0x000000000011a01c        0x0 binaries/lflinit.o
 .bss           0x000000000011a01c        0x0 binaries/lflputc.o
 .bss           0x000000000011a01c        0x0 binaries/lflread.o
 .bss           0x000000000011a01c        0x0 binaries/lflseek.o
 .bss           0x000000000011a01c        0x0 binaries/lflwrite.o
 .bss           0x000000000011a01c        0x0 binaries/lfsckfmt.o
 .bss           0x000000000011a01c        0x0 binaries/lfscreate.o
 .bss           0x000000000011a01c        0x0 binaries/lfsetup.o
 .bss           0x000000000011a01c        0x0 binaries/lfsinit.o
 .bss           0x000000000011a01c        0x0 binaries/lfsopen.o
 .bss           0x000000000011a01c        0x0 binaries/lftruncate.o
 .bss           0x000000000011a01c        0x0 binaries/rflclose.o
 .bss           0x000000000011a01c        0x0 binaries/rflgetc.o
 .bss           0x000000000011a01c        0x0 binaries/rflinit.o
 .bss           0x000000000011a01c        0x0 binaries/rflputc.o
 .bss           0x000000000011a01c        0x0 binaries/rflread.o
 .bss           0x000000000011a01c        0x0 binaries/rflseek.o
 .bss           0x000000000011a01c        0x0 binaries/rflwrite.o
 .bss           0x000000000011a01c        0x0 binaries/rfscomm.o
 .bss           0x000000000011a01c        0x0 binaries/rfscontrol.o
 .bss           0x000000000011a01c        0x0 binaries/rfsgetmode.o
 .bss           0x000000000011a01c        0x0 binaries/rfsinit.o
 .bss           0x000000000011a01c        0x0 binaries/rfsndmsg.o
 .bss           0x000000000011a01c        0x0 binaries/rfsopen.o
 .bss           0x000000000011a01c        0x0 binaries/arp.o
 .bss           0x000000000011a01c        0x0 binaries/dhcp.o
 .bss           0x000000000011a01c        0x0 binaries/dot2ip.o
 .bss           0x000000000011a01c        0x0 binaries/hexdump.o
 .bss           0x000000000011a01c        0x0 binaries/icmp.o
 .bss           0x000000000011a01c        0x0 binaries/ip.o
 .bss           0x000000000011a01c        0x0 binaries/net.o
 .bss           0x000000000011a01c        0x0 binaries/netstart.o
 .bss           0x000000000011a01c        0x0 binaries/pdump.o
 .bss           0x000000000011a01c        0x0 binaries/tftp.o
 .bss           0x000000000011a01c        0x0 binaries/udp.o
 .bss           0x000000000011a01c        0x0 binaries/addargs.o
 .bss           0x000000000011a01c        0x0 binaries/lexan.o
 .bss           0x000000000011a01c        0x0 binaries/shell.o
 .bss           0x000000000011a01c        0x0 binaries/xsh_argecho.o
 .bss           0x000000000011a01c        0x0 binaries/xsh_arp.o
 .bss           0x000000000011a01c        0x0 binaries/xsh_cat.o
 .bss           0x000000000011a01c        0x0 binaries/xsh_clear.o
 .bss           0x000000000011a01c        0x0 binaries/xsh_date.o
 .bss           0x000000000011a01c        0x0 binaries/xsh_devdump.o
 .bss           0x000000000011a01c        0x0 binaries/xsh_echo.o
 .bss           0x000000000011a01c        0x0 binaries/xsh_exit.o
 .bss           0x000000000011a01c        0x0 binaries/xsh_help.o
 .bss           0x000000000011a01c        0x0 binaries/xsh_ipaddr.o
 .bss           0x000000000011a01c        0x0 binaries/xsh_kill.o
 .bss           0x000000000011a01c        0x0 binaries/xsh_memdump.o
 .bss           0x000000000011a01c        0x0 binaries/xsh_memstat.o
 .bss           0x000000000011a01c        0x4 binaries/xsh_ping.o
 .bss           0x000000000011a020        0x0 binaries/xsh_poo.o
 .bss           0x000000000011a020        0x0 binaries/xsh_ps.o
 .bss           0x000000000011a020        0x0 binaries/xsh_rdstest.o
 .bss           0x000000000011a020        0x0 binaries/xsh_sleep.o
 .bss           0x000000000011a020        0x0 binaries/xsh_udpdump.o
 .bss           0x000000000011a020        0x0 binaries/xsh_udpecho.o
 .bss           0x000000000011a020        0x0 binaries/xsh_udpeserver.o
 .bss           0x000000000011a020        0x0 binaries/xsh_uptime.o
 .bss           0x000000000011a020        0x0 binaries/clkdisp.o
 .bss           0x000000000011a020        0x0 binaries/ctxsw.o
 .bss           0x000000000011a020        0x0 binaries/host2netl.o
 .bss           0x000000000011a020        0x0 binaries/intr.o
 .bss           0x000000000011a020        0x0 binaries/ttydispatch.o
 .bss           0x000000000011a020        0x0 binaries/ethdispatch.o
 *(COMMON)
 COMMON         0x000000000011a020       0xf4 binaries/bufinit.o
                0x000000000011a020                buftab
                0x000000000011a110                nbpools
 COMMON         0x000000000011a114       0x10 binaries/clkinit.o
                0x000000000011a114                sleepq
                0x000000000011a118                preempt
                0x000000000011a11c                clktimefine
                0x000000000011a120                clktime
 COMMON         0x000000000011a124        0x2 binaries/evec.o
                0x000000000011a124                girmask
 *fill*         0x000000000011a126       0x1a 
 COMMON         0x000000000011a140     0x1c58 binaries/initialize.o
                0x000000000011a140                currpid
                0x000000000011a160                proctab
                0x000000000011b8d0                prcount
                0x000000000011b8e0                semtab
                0x000000000011bd90                memlist
 *fill*         0x000000000011bd98        0x8 
 COMMON         0x000000000011bda0       0x58 binaries/mark.o
                0x000000000011bda0                marks
                0x000000000011bdf0                nmarks
                0x000000000011bdf4                mkmutex
 COMMON         0x000000000011bdf8        0x8 binaries/meminit.o
                0x000000000011bdf8                minheap
                0x000000000011bdfc                maxheap
 COMMON         0x000000000011be00      0x2d8 binaries/ptinit.o
                0x000000000011be00                porttab
                0x000000000011c0d0                ptnextid
                0x000000000011c0d4                ptfree
 *fill*         0x000000000011c0d8        0x8 
 COMMON         0x000000000011c0e0      0x980 binaries/queue.o
                0x000000000011c0e0                queuetab
 COMMON         0x000000000011ca60        0x2 binaries/ready.o
                0x000000000011ca60                readylist
 *fill*         0x000000000011ca62        0x2 
 COMMON         0x000000000011ca64        0x8 binaries/resched.o
                0x000000000011ca64                Defer
 COMMON         0x000000000011ca6c        0x8 binaries/stackdepth.o
                0x000000000011ca6c                ebp
                0x000000000011ca70                esp
 *fill*         0x000000000011ca74        0xc 
 COMMON         0x000000000011ca80      0x10c binaries/ttyinit.o
                0x000000000011ca80                ttytab
 *fill*         0x000000000011cb8c       0x14 
 COMMON         0x000000000011cba0     0x19c0 binaries/naminit.o
                0x000000000011cba0                nnames
                0x000000000011cbc0                nametab
 COMMON         0x000000000011e560      0x138 binaries/ethinit.o
                0x000000000011e560                ethertab
 *fill*         0x000000000011e698        0x8 
 COMMON         0x000000000011e6a0       0x8c binaries/rdsinit.o
                0x000000000011e6a0                rdstab
 *fill*         0x000000000011e72c       0x14 
 COMMON         0x000000000011e740    0x19000 binaries/raminit.o
                0x000000000011e740                Ram
 COMMON         0x0000000000137740      0xf00 binaries/lflinit.o
                0x0000000000137740                lfltab
 COMMON         0x0000000000138640      0x20c binaries/lfsinit.o
                0x0000000000138640                Lf_data
 *fill*         0x000000000013884c       0x14 
 COMMON         0x0000000000138860      0x5a0 binaries/rflinit.o
                0x0000000000138860                rfltab
 COMMON         0x0000000000138e00       0x18 binaries/rfsinit.o
                0x0000000000138e00                Rf_data
 *fill*         0x0000000000138e18        0x8 
 COMMON         0x0000000000138e20      0x140 binaries/arp.o
                0x0000000000138e20                arpcache
 COMMON         0x0000000000138f60      0x230 binaries/icmp.o
                0x0000000000138f60                icmptab
 *fill*         0x0000000000139190       0x10 
 COMMON         0x00000000001391a0       0x2c binaries/ip.o
                0x00000000001391a0                ipoqueue
 *fill*         0x00000000001391cc       0x14 
 COMMON         0x00000000001391e0       0xc8 binaries/net.o
                0x00000000001391e0                netbufpool
                0x0000000000139200                NetData
 *fill*         0x00000000001392a8       0x18 
 COMMON         0x00000000001392c0      0x168 binaries/udp.o
                0x00000000001392c0                udptab
                0x0000000000139428                ebss = ABSOLUTE (.)
                0x000000000013a000                . = ALIGN (0x1000)
 *fill*         0x0000000000139428      0xbd8 
 */()
                0x000000000013a000                end = ABSOLUTE (.)
                0x000000000013a000                _end = ABSOLUTE (.)
                0x000000000013a000                . = ALIGN (0x1000)
LOAD binaries/start.o
LOAD binaries/ascdate.o
LOAD binaries/bufinit.o
LOAD binaries/chprio.o
LOAD binaries/clkhandler.o
LOAD binaries/clkinit.o
LOAD binaries/close.o
LOAD binaries/conf.o
LOAD binaries/control.o
LOAD binaries/cpuintensive.o
LOAD binaries/create.o
LOAD binaries/early_imr.o
LOAD binaries/evec.o
LOAD binaries/freebuf.o
LOAD binaries/freemem.o
LOAD binaries/getbuf.o
LOAD binaries/getc.o
LOAD binaries/getdev.o
LOAD binaries/getitem.o
LOAD binaries/getmem.o
LOAD binaries/getpid.o
LOAD binaries/getprio.o
LOAD binaries/getstk.o
LOAD binaries/gettime.o
LOAD binaries/getutime.o
LOAD binaries/init.o
LOAD binaries/initialize.o
LOAD binaries/insert.o
LOAD binaries/insertd.o
LOAD binaries/ioerr.o
LOAD binaries/iointensive.o
LOAD binaries/ionull.o
LOAD binaries/kill.o
LOAD binaries/kprintf.o
LOAD binaries/lab0app1.o
LOAD binaries/lab0app2.o
LOAD binaries/main.o
LOAD binaries/mark.o
LOAD binaries/meminit.o
LOAD binaries/mkbufpool.o
LOAD binaries/myattacker.o
LOAD binaries/myattackermalware.o
LOAD binaries/myvictim.o
LOAD binaries/newqueue.o
LOAD binaries/open.o
LOAD binaries/panic.o
LOAD binaries/pci.o
LOAD binaries/platinit.o
LOAD binaries/printloop.o
LOAD binaries/printnoloop.o
LOAD binaries/printsegaddress.o
LOAD binaries/ptclear.o
LOAD binaries/ptcount.o
LOAD binaries/ptcreate.o
LOAD binaries/ptdelete.o
LOAD binaries/ptinit.o
LOAD binaries/ptrecv.o
LOAD binaries/ptreset.o
LOAD binaries/ptsend.o
LOAD binaries/putc.o
LOAD binaries/quark_irq.o
LOAD binaries/quark_pdat.o
LOAD binaries/queue.o
LOAD binaries/read.o
LOAD binaries/ready.o
LOAD binaries/receive.o
LOAD binaries/recvclr.o
LOAD binaries/recvtime.o
LOAD binaries/resched.o
LOAD binaries/resume.o
LOAD binaries/seek.o
LOAD binaries/semcount.o
LOAD binaries/semcreate.o
LOAD binaries/semdelete.o
LOAD binaries/semreset.o
LOAD binaries/send.o
LOAD binaries/signal.o
LOAD binaries/signaln.o
LOAD binaries/sleep.o
LOAD binaries/stackdepth.o
LOAD binaries/stacktrace.o
LOAD binaries/suspend.o
LOAD binaries/unsleep.o
LOAD binaries/userret.o
LOAD binaries/wait.o
LOAD binaries/wakeup.o
LOAD binaries/write.o
LOAD binaries/xdone.o
LOAD binaries/yield.o
LOAD binaries/abs.o
LOAD binaries/atoi.o
LOAD binaries/atol.o
LOAD binaries/bzero.o
LOAD binaries/ctype_.o
LOAD binaries/doprnt.o
LOAD binaries/doscan.o
LOAD binaries/fdoprnt.o
LOAD binaries/fgetc.o
LOAD binaries/fgets.o
LOAD binaries/fprintf.o
LOAD binaries/fputc.o
LOAD binaries/fputs.o
LOAD binaries/fscanf.o
LOAD binaries/getchar.o
LOAD binaries/labs.o
LOAD binaries/memchr.o
LOAD binaries/memcmp.o
LOAD binaries/memcpy.o
LOAD binaries/memset.o
LOAD binaries/printf.o
LOAD binaries/putchar.o
LOAD binaries/qsort.o
LOAD binaries/rand.o
LOAD binaries/sprintf.o
LOAD binaries/sscanf.o
LOAD binaries/strchr.o
LOAD binaries/strcmp.o
LOAD binaries/strcpy.o
LOAD binaries/strlen.o
LOAD binaries/strncat.o
LOAD binaries/strncmp.o
LOAD binaries/strncpy.o
LOAD binaries/strnlen.o
LOAD binaries/strrchr.o
LOAD binaries/strstr.o
LOAD binaries/ttycontrol.o
LOAD binaries/ttygetc.o
LOAD binaries/ttyhandle_in.o
LOAD binaries/ttyhandle_out.o
LOAD binaries/ttyhandler.o
LOAD binaries/ttyinit.o
LOAD binaries/ttykickout.o
LOAD binaries/ttyputc.o
LOAD binaries/ttyread.o
LOAD binaries/ttywrite.o
LOAD binaries/mount.o
LOAD binaries/naminit.o
LOAD binaries/nammap.o
LOAD binaries/namopen.o
LOAD binaries/colon2mac.o
LOAD binaries/ethcontrol.o
LOAD binaries/ethhandler.o
LOAD binaries/ethinit.o
LOAD binaries/ethmcast.o
LOAD binaries/ethread.o
LOAD binaries/ethwrite.o
LOAD binaries/rdsbufalloc.o
LOAD binaries/rdsclose.o
LOAD binaries/rdscomm.o
LOAD binaries/rdscontrol.o
LOAD binaries/rdsinit.o
LOAD binaries/rdsopen.o
LOAD binaries/rdsprocess.o
LOAD binaries/rdsread.o
LOAD binaries/rdswrite.o
LOAD binaries/ramclose.o
LOAD binaries/raminit.o
LOAD binaries/ramopen.o
LOAD binaries/ramread.o
LOAD binaries/ramwrite.o
LOAD binaries/lfdballoc.o
LOAD binaries/lfdbfree.o
LOAD binaries/lfflush.o
LOAD binaries/lfgetmode.o
LOAD binaries/lfiballoc.o
LOAD binaries/lfibclear.o
LOAD binaries/lfibget.o
LOAD binaries/lfibput.o
LOAD binaries/lflclose.o
LOAD binaries/lflcontrol.o
LOAD binaries/lflgetc.o
LOAD binaries/lflinit.o
LOAD binaries/lflputc.o
LOAD binaries/lflread.o
LOAD binaries/lflseek.o
LOAD binaries/lflwrite.o
LOAD binaries/lfsckfmt.o
LOAD binaries/lfscreate.o
LOAD binaries/lfsetup.o
LOAD binaries/lfsinit.o
LOAD binaries/lfsopen.o
LOAD binaries/lftruncate.o
LOAD binaries/rflclose.o
LOAD binaries/rflgetc.o
LOAD binaries/rflinit.o
LOAD binaries/rflputc.o
LOAD binaries/rflread.o
LOAD binaries/rflseek.o
LOAD binaries/rflwrite.o
LOAD binaries/rfscomm.o
LOAD binaries/rfscontrol.o
LOAD binaries/rfsgetmode.o
LOAD binaries/rfsinit.o
LOAD binaries/rfsndmsg.o
LOAD binaries/rfsopen.o
LOAD binaries/arp.o
LOAD binaries/dhcp.o
LOAD binaries/dot2ip.o
LOAD binaries/hexdump.o
LOAD binaries/icmp.o
LOAD binaries/ip.o
LOAD binaries/net.o
LOAD binaries/netstart.o
LOAD binaries/pdump.o
LOAD binaries/tftp.o
LOAD binaries/udp.o
LOAD binaries/addargs.o
LOAD binaries/lexan.o
LOAD binaries/shell.o
LOAD binaries/xsh_argecho.o
LOAD binaries/xsh_arp.o
LOAD binaries/xsh_cat.o
LOAD binaries/xsh_clear.o
LOAD binaries/xsh_date.o
LOAD binaries/xsh_devdump.o
LOAD binaries/xsh_echo.o
LOAD binaries/xsh_exit.o
LOAD binaries/xsh_help.o
LOAD binaries/xsh_ipaddr.o
LOAD binaries/xsh_kill.o
LOAD binaries/xsh_memdump.o
LOAD binaries/xsh_memstat.o
LOAD binaries/xsh_ping.o
LOAD binaries/xsh_poo.o
LOAD binaries/xsh_ps.o
LOAD binaries/xsh_rdstest.o
LOAD binaries/xsh_sleep.o
LOAD binaries/xsh_udpdump.o
LOAD binaries/xsh_udpecho.o
LOAD binaries/xsh_udpeserver.o
LOAD binaries/xsh_uptime.o
LOAD binaries/clkdisp.o
LOAD binaries/ctxsw.o
LOAD binaries/host2netl.o
LOAD binaries/intr.o
LOAD binaries/ttydispatch.o
LOAD binaries/ethdispatch.o
OUTPUT(../compile/xinu elf32-i386)

.comment        0x0000000000000000       0x2a
 .comment       0x0000000000000000       0x2a binaries/ascdate.o
                                         0x2b (size before relaxing)
 .comment       0x0000000000000000       0x2b binaries/bufinit.o
 .comment       0x0000000000000000       0x2b binaries/chprio.o
 .comment       0x0000000000000000       0x2b binaries/clkhandler.o
 .comment       0x0000000000000000       0x2b binaries/clkinit.o
 .comment       0x0000000000000000       0x2b binaries/close.o
 .comment       0x0000000000000000       0x2b binaries/conf.o
 .comment       0x0000000000000000       0x2b binaries/control.o
 .comment       0x0000000000000000       0x2b binaries/cpuintensive.o
 .comment       0x0000000000000000       0x2b binaries/create.o
 .comment       0x0000000000000000       0x2b binaries/early_imr.o
 .comment       0x0000000000000000       0x2b binaries/evec.o
 .comment       0x0000000000000000       0x2b binaries/freebuf.o
 .comment       0x0000000000000000       0x2b binaries/freemem.o
 .comment       0x0000000000000000       0x2b binaries/getbuf.o
 .comment       0x0000000000000000       0x2b binaries/getc.o
 .comment       0x0000000000000000       0x2b binaries/getdev.o
 .comment       0x0000000000000000       0x2b binaries/getitem.o
 .comment       0x0000000000000000       0x2b binaries/getmem.o
 .comment       0x0000000000000000       0x2b binaries/getpid.o
 .comment       0x0000000000000000       0x2b binaries/getprio.o
 .comment       0x0000000000000000       0x2b binaries/getstk.o
 .comment       0x0000000000000000       0x2b binaries/gettime.o
 .comment       0x0000000000000000       0x2b binaries/getutime.o
 .comment       0x0000000000000000       0x2b binaries/init.o
 .comment       0x0000000000000000       0x2b binaries/initialize.o
 .comment       0x0000000000000000       0x2b binaries/insert.o
 .comment       0x0000000000000000       0x2b binaries/insertd.o
 .comment       0x0000000000000000       0x2b binaries/ioerr.o
 .comment       0x0000000000000000       0x2b binaries/iointensive.o
 .comment       0x0000000000000000       0x2b binaries/ionull.o
 .comment       0x0000000000000000       0x2b binaries/kill.o
 .comment       0x0000000000000000       0x2b binaries/kprintf.o
 .comment       0x0000000000000000       0x2b binaries/lab0app1.o
 .comment       0x0000000000000000       0x2b binaries/lab0app2.o
 .comment       0x0000000000000000       0x2b binaries/main.o
 .comment       0x0000000000000000       0x2b binaries/mark.o
 .comment       0x0000000000000000       0x2b binaries/meminit.o
 .comment       0x0000000000000000       0x2b binaries/mkbufpool.o
 .comment       0x0000000000000000       0x2b binaries/myattacker.o
 .comment       0x0000000000000000       0x2b binaries/myattackermalware.o
 .comment       0x0000000000000000       0x2b binaries/myvictim.o
 .comment       0x0000000000000000       0x2b binaries/newqueue.o
 .comment       0x0000000000000000       0x2b binaries/open.o
 .comment       0x0000000000000000       0x2b binaries/panic.o
 .comment       0x0000000000000000       0x2b binaries/pci.o
 .comment       0x0000000000000000       0x2b binaries/platinit.o
 .comment       0x0000000000000000       0x2b binaries/printloop.o
 .comment       0x0000000000000000       0x2b binaries/printnoloop.o
 .comment       0x0000000000000000       0x2b binaries/printsegaddress.o
 .comment       0x0000000000000000       0x2b binaries/ptclear.o
 .comment       0x0000000000000000       0x2b binaries/ptcount.o
 .comment       0x0000000000000000       0x2b binaries/ptcreate.o
 .comment       0x0000000000000000       0x2b binaries/ptdelete.o
 .comment       0x0000000000000000       0x2b binaries/ptinit.o
 .comment       0x0000000000000000       0x2b binaries/ptrecv.o
 .comment       0x0000000000000000       0x2b binaries/ptreset.o
 .comment       0x0000000000000000       0x2b binaries/ptsend.o
 .comment       0x0000000000000000       0x2b binaries/putc.o
 .comment       0x0000000000000000       0x2b binaries/quark_irq.o
 .comment       0x0000000000000000       0x2b binaries/quark_pdat.o
 .comment       0x0000000000000000       0x2b binaries/queue.o
 .comment       0x0000000000000000       0x2b binaries/read.o
 .comment       0x0000000000000000       0x2b binaries/ready.o
 .comment       0x0000000000000000       0x2b binaries/receive.o
 .comment       0x0000000000000000       0x2b binaries/recvclr.o
 .comment       0x0000000000000000       0x2b binaries/recvtime.o
 .comment       0x0000000000000000       0x2b binaries/resched.o
 .comment       0x0000000000000000       0x2b binaries/resume.o
 .comment       0x0000000000000000       0x2b binaries/seek.o
 .comment       0x0000000000000000       0x2b binaries/semcount.o
 .comment       0x0000000000000000       0x2b binaries/semcreate.o
 .comment       0x0000000000000000       0x2b binaries/semdelete.o
 .comment       0x0000000000000000       0x2b binaries/semreset.o
 .comment       0x0000000000000000       0x2b binaries/send.o
 .comment       0x0000000000000000       0x2b binaries/signal.o
 .comment       0x0000000000000000       0x2b binaries/signaln.o
 .comment       0x0000000000000000       0x2b binaries/sleep.o
 .comment       0x0000000000000000       0x2b binaries/stackdepth.o
 .comment       0x0000000000000000       0x2b binaries/stacktrace.o
 .comment       0x0000000000000000       0x2b binaries/suspend.o
 .comment       0x0000000000000000       0x2b binaries/unsleep.o
 .comment       0x0000000000000000       0x2b binaries/userret.o
 .comment       0x0000000000000000       0x2b binaries/wait.o
 .comment       0x0000000000000000       0x2b binaries/wakeup.o
 .comment       0x0000000000000000       0x2b binaries/write.o
 .comment       0x0000000000000000       0x2b binaries/xdone.o
 .comment       0x0000000000000000       0x2b binaries/yield.o
 .comment       0x0000000000000000       0x2b binaries/abs.o
 .comment       0x0000000000000000       0x2b binaries/atoi.o
 .comment       0x0000000000000000       0x2b binaries/atol.o
 .comment       0x0000000000000000       0x2b binaries/bzero.o
 .comment       0x0000000000000000       0x2b binaries/ctype_.o
 .comment       0x0000000000000000       0x2b binaries/doprnt.o
 .comment       0x0000000000000000       0x2b binaries/doscan.o
 .comment       0x0000000000000000       0x2b binaries/fdoprnt.o
 .comment       0x0000000000000000       0x2b binaries/fgetc.o
 .comment       0x0000000000000000       0x2b binaries/fgets.o
 .comment       0x0000000000000000       0x2b binaries/fprintf.o
 .comment       0x0000000000000000       0x2b binaries/fputc.o
 .comment       0x0000000000000000       0x2b binaries/fputs.o
 .comment       0x0000000000000000       0x2b binaries/fscanf.o
 .comment       0x0000000000000000       0x2b binaries/getchar.o
 .comment       0x0000000000000000       0x2b binaries/labs.o
 .comment       0x0000000000000000       0x2b binaries/memchr.o
 .comment       0x0000000000000000       0x2b binaries/memcmp.o
 .comment       0x0000000000000000       0x2b binaries/memcpy.o
 .comment       0x0000000000000000       0x2b binaries/memset.o
 .comment       0x0000000000000000       0x2b binaries/printf.o
 .comment       0x0000000000000000       0x2b binaries/putchar.o
 .comment       0x0000000000000000       0x2b binaries/qsort.o
 .comment       0x0000000000000000       0x2b binaries/rand.o
 .comment       0x0000000000000000       0x2b binaries/sprintf.o
 .comment       0x0000000000000000       0x2b binaries/sscanf.o
 .comment       0x0000000000000000       0x2b binaries/strchr.o
 .comment       0x0000000000000000       0x2b binaries/strcmp.o
 .comment       0x0000000000000000       0x2b binaries/strcpy.o
 .comment       0x0000000000000000       0x2b binaries/strlen.o
 .comment       0x0000000000000000       0x2b binaries/strncat.o
 .comment       0x0000000000000000       0x2b binaries/strncmp.o
 .comment       0x0000000000000000       0x2b binaries/strncpy.o
 .comment       0x0000000000000000       0x2b binaries/strnlen.o
 .comment       0x0000000000000000       0x2b binaries/strrchr.o
 .comment       0x0000000000000000       0x2b binaries/strstr.o
 .comment       0x0000000000000000       0x2b binaries/ttycontrol.o
 .comment       0x0000000000000000       0x2b binaries/ttygetc.o
 .comment       0x0000000000000000       0x2b binaries/ttyhandle_in.o
 .comment       0x0000000000000000       0x2b binaries/ttyhandle_out.o
 .comment       0x0000000000000000       0x2b binaries/ttyhandler.o
 .comment       0x0000000000000000       0x2b binaries/ttyinit.o
 .comment       0x0000000000000000       0x2b binaries/ttykickout.o
 .comment       0x0000000000000000       0x2b binaries/ttyputc.o
 .comment       0x0000000000000000       0x2b binaries/ttyread.o
 .comment       0x0000000000000000       0x2b binaries/ttywrite.o
 .comment       0x0000000000000000       0x2b binaries/mount.o
 .comment       0x0000000000000000       0x2b binaries/naminit.o
 .comment       0x0000000000000000       0x2b binaries/nammap.o
 .comment       0x0000000000000000       0x2b binaries/namopen.o
 .comment       0x0000000000000000       0x2b binaries/colon2mac.o
 .comment       0x0000000000000000       0x2b binaries/ethcontrol.o
 .comment       0x0000000000000000       0x2b binaries/ethhandler.o
 .comment       0x0000000000000000       0x2b binaries/ethinit.o
 .comment       0x0000000000000000       0x2b binaries/ethmcast.o
 .comment       0x0000000000000000       0x2b binaries/ethread.o
 .comment       0x0000000000000000       0x2b binaries/ethwrite.o
 .comment       0x0000000000000000       0x2b binaries/rdsbufalloc.o
 .comment       0x0000000000000000       0x2b binaries/rdsclose.o
 .comment       0x0000000000000000       0x2b binaries/rdscomm.o
 .comment       0x0000000000000000       0x2b binaries/rdscontrol.o
 .comment       0x0000000000000000       0x2b binaries/rdsinit.o
 .comment       0x0000000000000000       0x2b binaries/rdsopen.o
 .comment       0x0000000000000000       0x2b binaries/rdsprocess.o
 .comment       0x0000000000000000       0x2b binaries/rdsread.o
 .comment       0x0000000000000000       0x2b binaries/rdswrite.o
 .comment       0x0000000000000000       0x2b binaries/ramclose.o
 .comment       0x0000000000000000       0x2b binaries/raminit.o
 .comment       0x0000000000000000       0x2b binaries/ramopen.o
 .comment       0x0000000000000000       0x2b binaries/ramread.o
 .comment       0x0000000000000000       0x2b binaries/ramwrite.o
 .comment       0x0000000000000000       0x2b binaries/lfdballoc.o
 .comment       0x0000000000000000       0x2b binaries/lfdbfree.o
 .comment       0x0000000000000000       0x2b binaries/lfflush.o
 .comment       0x0000000000000000       0x2b binaries/lfgetmode.o
 .comment       0x0000000000000000       0x2b binaries/lfiballoc.o
 .comment       0x0000000000000000       0x2b binaries/lfibclear.o
 .comment       0x0000000000000000       0x2b binaries/lfibget.o
 .comment       0x0000000000000000       0x2b binaries/lfibput.o
 .comment       0x0000000000000000       0x2b binaries/lflclose.o
 .comment       0x0000000000000000       0x2b binaries/lflcontrol.o
 .comment       0x0000000000000000       0x2b binaries/lflgetc.o
 .comment       0x0000000000000000       0x2b binaries/lflinit.o
 .comment       0x0000000000000000       0x2b binaries/lflputc.o
 .comment       0x0000000000000000       0x2b binaries/lflread.o
 .comment       0x0000000000000000       0x2b binaries/lflseek.o
 .comment       0x0000000000000000       0x2b binaries/lflwrite.o
 .comment       0x0000000000000000       0x2b binaries/lfsckfmt.o
 .comment       0x0000000000000000       0x2b binaries/lfscreate.o
 .comment       0x0000000000000000       0x2b binaries/lfsetup.o
 .comment       0x0000000000000000       0x2b binaries/lfsinit.o
 .comment       0x0000000000000000       0x2b binaries/lfsopen.o
 .comment       0x0000000000000000       0x2b binaries/lftruncate.o
 .comment       0x0000000000000000       0x2b binaries/rflclose.o
 .comment       0x0000000000000000       0x2b binaries/rflgetc.o
 .comment       0x0000000000000000       0x2b binaries/rflinit.o
 .comment       0x0000000000000000       0x2b binaries/rflputc.o
 .comment       0x0000000000000000       0x2b binaries/rflread.o
 .comment       0x0000000000000000       0x2b binaries/rflseek.o
 .comment       0x0000000000000000       0x2b binaries/rflwrite.o
 .comment       0x0000000000000000       0x2b binaries/rfscomm.o
 .comment       0x0000000000000000       0x2b binaries/rfscontrol.o
 .comment       0x0000000000000000       0x2b binaries/rfsgetmode.o
 .comment       0x0000000000000000       0x2b binaries/rfsinit.o
 .comment       0x0000000000000000       0x2b binaries/rfsndmsg.o
 .comment       0x0000000000000000       0x2b binaries/rfsopen.o
 .comment       0x0000000000000000       0x2b binaries/arp.o
 .comment       0x0000000000000000       0x2b binaries/dhcp.o
 .comment       0x0000000000000000       0x2b binaries/dot2ip.o
 .comment       0x0000000000000000       0x2b binaries/hexdump.o
 .comment       0x0000000000000000       0x2b binaries/icmp.o
 .comment       0x0000000000000000       0x2b binaries/ip.o
 .comment       0x0000000000000000       0x2b binaries/net.o
 .comment       0x0000000000000000       0x2b binaries/netstart.o
 .comment       0x0000000000000000       0x2b binaries/pdump.o
 .comment       0x0000000000000000       0x2b binaries/tftp.o
 .comment       0x0000000000000000       0x2b binaries/udp.o
 .comment       0x0000000000000000       0x2b binaries/addargs.o
 .comment       0x0000000000000000       0x2b binaries/lexan.o
 .comment       0x0000000000000000       0x2b binaries/shell.o
 .comment       0x0000000000000000       0x2b binaries/xsh_argecho.o
 .comment       0x0000000000000000       0x2b binaries/xsh_arp.o
 .comment       0x0000000000000000       0x2b binaries/xsh_cat.o
 .comment       0x0000000000000000       0x2b binaries/xsh_clear.o
 .comment       0x0000000000000000       0x2b binaries/xsh_date.o
 .comment       0x0000000000000000       0x2b binaries/xsh_devdump.o
 .comment       0x0000000000000000       0x2b binaries/xsh_echo.o
 .comment       0x0000000000000000       0x2b binaries/xsh_exit.o
 .comment       0x0000000000000000       0x2b binaries/xsh_help.o
 .comment       0x0000000000000000       0x2b binaries/xsh_ipaddr.o
 .comment       0x0000000000000000       0x2b binaries/xsh_kill.o
 .comment       0x0000000000000000       0x2b binaries/xsh_memdump.o
 .comment       0x0000000000000000       0x2b binaries/xsh_memstat.o
 .comment       0x0000000000000000       0x2b binaries/xsh_ping.o
 .comment       0x0000000000000000       0x2b binaries/xsh_poo.o
 .comment       0x0000000000000000       0x2b binaries/xsh_ps.o
 .comment       0x0000000000000000       0x2b binaries/xsh_rdstest.o
 .comment       0x0000000000000000       0x2b binaries/xsh_sleep.o
 .comment       0x0000000000000000       0x2b binaries/xsh_udpdump.o
 .comment       0x0000000000000000       0x2b binaries/xsh_udpecho.o
 .comment       0x0000000000000000       0x2b binaries/xsh_udpeserver.o
 .comment       0x0000000000000000       0x2b binaries/xsh_uptime.o

.note.GNU-stack
                0x0000000000000000        0x0
 .note.GNU-stack
                0x0000000000000000        0x0 binaries/ascdate.o
 .note.GNU-stack
                0x0000000000000000        0x0 binaries/bufinit.o
 .note.GNU-stack
                0x0000000000000000        0x0 binaries/chprio.o
 .note.GNU-stack
                0x0000000000000000        0x0 binaries/clkhandler.o
 .note.GNU-stack
                0x0000000000000000        0x0 binaries/clkinit.o
 .note.GNU-stack
                0x0000000000000000        0x0 binaries/close.o
 .note.GNU-stack
                0x0000000000000000        0x0 binaries/conf.o
 .note.GNU-stack
                0x0000000000000000        0x0 binaries/control.o
 .note.GNU-stack
                0x0000000000000000        0x0 binaries/cpuintensive.o
 .note.GNU-stack
                0x0000000000000000        0x0 binaries/create.o
 .note.GNU-stack
                0x0000000000000000        0x0 binaries/early_imr.o
 .note.GNU-stack
                0x0000000000000000        0x0 binaries/evec.o
 .note.GNU-stack
                0x0000000000000000        0x0 binaries/freebuf.o
 .note.GNU-stack
                0x0000000000000000        0x0 binaries/freemem.o
 .note.GNU-stack
                0x0000000000000000        0x0 binaries/getbuf.o
 .note.GNU-stack
                0x0000000000000000        0x0 binaries/getc.o
 .note.GNU-stack
                0x0000000000000000        0x0 binaries/getdev.o
 .note.GNU-stack
                0x0000000000000000        0x0 binaries/getitem.o
 .note.GNU-stack
                0x0000000000000000        0x0 binaries/getmem.o
 .note.GNU-stack
                0x0000000000000000        0x0 binaries/getpid.o
 .note.GNU-stack
                0x0000000000000000        0x0 binaries/getprio.o
 .note.GNU-stack
                0x0000000000000000        0x0 binaries/getstk.o
 .note.GNU-stack
                0x0000000000000000        0x0 binaries/gettime.o
 .note.GNU-stack
                0x0000000000000000        0x0 binaries/getutime.o
 .note.GNU-stack
                0x0000000000000000        0x0 binaries/init.o
 .note.GNU-stack
                0x0000000000000000        0x0 binaries/initialize.o
 .note.GNU-stack
                0x0000000000000000        0x0 binaries/insert.o
 .note.GNU-stack
                0x0000000000000000        0x0 binaries/insertd.o
 .note.GNU-stack
                0x0000000000000000        0x0 binaries/ioerr.o
 .note.GNU-stack
                0x0000000000000000        0x0 binaries/iointensive.o
 .note.GNU-stack
                0x0000000000000000        0x0 binaries/ionull.o
 .note.GNU-stack
                0x0000000000000000        0x0 binaries/kill.o
 .note.GNU-stack
                0x0000000000000000        0x0 binaries/kprintf.o
 .note.GNU-stack
                0x0000000000000000        0x0 binaries/lab0app1.o
 .note.GNU-stack
                0x0000000000000000        0x0 binaries/lab0app2.o
 .note.GNU-stack
                0x0000000000000000        0x0 binaries/main.o
 .note.GNU-stack
                0x0000000000000000        0x0 binaries/mark.o
 .note.GNU-stack
                0x0000000000000000        0x0 binaries/meminit.o
 .note.GNU-stack
                0x0000000000000000        0x0 binaries/mkbufpool.o
 .note.GNU-stack
                0x0000000000000000        0x0 binaries/myattacker.o
 .note.GNU-stack
                0x0000000000000000        0x0 binaries/myattackermalware.o
 .note.GNU-stack
                0x0000000000000000        0x0 binaries/myvictim.o
 .note.GNU-stack
                0x0000000000000000        0x0 binaries/newqueue.o
 .note.GNU-stack
                0x0000000000000000        0x0 binaries/open.o
 .note.GNU-stack
                0x0000000000000000        0x0 binaries/panic.o
 .note.GNU-stack
                0x0000000000000000        0x0 binaries/pci.o
 .note.GNU-stack
                0x0000000000000000        0x0 binaries/platinit.o
 .note.GNU-stack
                0x0000000000000000        0x0 binaries/printloop.o
 .note.GNU-stack
                0x0000000000000000        0x0 binaries/printnoloop.o
 .note.GNU-stack
                0x0000000000000000        0x0 binaries/printsegaddress.o
 .note.GNU-stack
                0x0000000000000000        0x0 binaries/ptclear.o
 .note.GNU-stack
                0x0000000000000000        0x0 binaries/ptcount.o
 .note.GNU-stack
                0x0000000000000000        0x0 binaries/ptcreate.o
 .note.GNU-stack
                0x0000000000000000        0x0 binaries/ptdelete.o
 .note.GNU-stack
                0x0000000000000000        0x0 binaries/ptinit.o
 .note.GNU-stack
                0x0000000000000000        0x0 binaries/ptrecv.o
 .note.GNU-stack
                0x0000000000000000        0x0 binaries/ptreset.o
 .note.GNU-stack
                0x0000000000000000        0x0 binaries/ptsend.o
 .note.GNU-stack
                0x0000000000000000        0x0 binaries/putc.o
 .note.GNU-stack
                0x0000000000000000        0x0 binaries/quark_irq.o
 .note.GNU-stack
                0x0000000000000000        0x0 binaries/quark_pdat.o
 .note.GNU-stack
                0x0000000000000000        0x0 binaries/queue.o
 .note.GNU-stack
                0x0000000000000000        0x0 binaries/read.o
 .note.GNU-stack
                0x0000000000000000        0x0 binaries/ready.o
 .note.GNU-stack
                0x0000000000000000        0x0 binaries/receive.o
 .note.GNU-stack
                0x0000000000000000        0x0 binaries/recvclr.o
 .note.GNU-stack
                0x0000000000000000        0x0 binaries/recvtime.o
 .note.GNU-stack
                0x0000000000000000        0x0 binaries/resched.o
 .note.GNU-stack
                0x0000000000000000        0x0 binaries/resume.o
 .note.GNU-stack
                0x0000000000000000        0x0 binaries/seek.o
 .note.GNU-stack
                0x0000000000000000        0x0 binaries/semcount.o
 .note.GNU-stack
                0x0000000000000000        0x0 binaries/semcreate.o
 .note.GNU-stack
                0x0000000000000000        0x0 binaries/semdelete.o
 .note.GNU-stack
                0x0000000000000000        0x0 binaries/semreset.o
 .note.GNU-stack
                0x0000000000000000        0x0 binaries/send.o
 .note.GNU-stack
                0x0000000000000000        0x0 binaries/signal.o
 .note.GNU-stack
                0x0000000000000000        0x0 binaries/signaln.o
 .note.GNU-stack
                0x0000000000000000        0x0 binaries/sleep.o
 .note.GNU-stack
                0x0000000000000000        0x0 binaries/stackdepth.o
 .note.GNU-stack
                0x0000000000000000        0x0 binaries/stacktrace.o
 .note.GNU-stack
                0x0000000000000000        0x0 binaries/suspend.o
 .note.GNU-stack
                0x0000000000000000        0x0 binaries/unsleep.o
 .note.GNU-stack
                0x0000000000000000        0x0 binaries/userret.o
 .note.GNU-stack
                0x0000000000000000        0x0 binaries/wait.o
 .note.GNU-stack
                0x0000000000000000        0x0 binaries/wakeup.o
 .note.GNU-stack
                0x0000000000000000        0x0 binaries/write.o
 .note.GNU-stack
                0x0000000000000000        0x0 binaries/xdone.o
 .note.GNU-stack
                0x0000000000000000        0x0 binaries/yield.o
 .note.GNU-stack
                0x0000000000000000        0x0 binaries/abs.o
 .note.GNU-stack
                0x0000000000000000        0x0 binaries/atoi.o
 .note.GNU-stack
                0x0000000000000000        0x0 binaries/atol.o
 .note.GNU-stack
                0x0000000000000000        0x0 binaries/bzero.o
 .note.GNU-stack
                0x0000000000000000        0x0 binaries/ctype_.o
 .note.GNU-stack
                0x0000000000000000        0x0 binaries/doprnt.o
 .note.GNU-stack
                0x0000000000000000        0x0 binaries/doscan.o
 .note.GNU-stack
                0x0000000000000000        0x0 binaries/fdoprnt.o
 .note.GNU-stack
                0x0000000000000000        0x0 binaries/fgetc.o
 .note.GNU-stack
                0x0000000000000000        0x0 binaries/fgets.o
 .note.GNU-stack
                0x0000000000000000        0x0 binaries/fprintf.o
 .note.GNU-stack
                0x0000000000000000        0x0 binaries/fputc.o
 .note.GNU-stack
                0x0000000000000000        0x0 binaries/fputs.o
 .note.GNU-stack
                0x0000000000000000        0x0 binaries/fscanf.o
 .note.GNU-stack
                0x0000000000000000        0x0 binaries/getchar.o
 .note.GNU-stack
                0x0000000000000000        0x0 binaries/labs.o
 .note.GNU-stack
                0x0000000000000000        0x0 binaries/memchr.o
 .note.GNU-stack
                0x0000000000000000        0x0 binaries/memcmp.o
 .note.GNU-stack
                0x0000000000000000        0x0 binaries/memcpy.o
 .note.GNU-stack
                0x0000000000000000        0x0 binaries/memset.o
 .note.GNU-stack
                0x0000000000000000        0x0 binaries/printf.o
 .note.GNU-stack
                0x0000000000000000        0x0 binaries/putchar.o
 .note.GNU-stack
                0x0000000000000000        0x0 binaries/qsort.o
 .note.GNU-stack
                0x0000000000000000        0x0 binaries/rand.o
 .note.GNU-stack
                0x0000000000000000        0x0 binaries/sprintf.o
 .note.GNU-stack
                0x0000000000000000        0x0 binaries/sscanf.o
 .note.GNU-stack
                0x0000000000000000        0x0 binaries/strchr.o
 .note.GNU-stack
                0x0000000000000000        0x0 binaries/strcmp.o
 .note.GNU-stack
                0x0000000000000000        0x0 binaries/strcpy.o
 .note.GNU-stack
                0x0000000000000000        0x0 binaries/strlen.o
 .note.GNU-stack
                0x0000000000000000        0x0 binaries/strncat.o
 .note.GNU-stack
                0x0000000000000000        0x0 binaries/strncmp.o
 .note.GNU-stack
                0x0000000000000000        0x0 binaries/strncpy.o
 .note.GNU-stack
                0x0000000000000000        0x0 binaries/strnlen.o
 .note.GNU-stack
                0x0000000000000000        0x0 binaries/strrchr.o
 .note.GNU-stack
                0x0000000000000000        0x0 binaries/strstr.o
 .note.GNU-stack
                0x0000000000000000        0x0 binaries/ttycontrol.o
 .note.GNU-stack
                0x0000000000000000        0x0 binaries/ttygetc.o
 .note.GNU-stack
                0x0000000000000000        0x0 binaries/ttyhandle_in.o
 .note.GNU-stack
                0x0000000000000000        0x0 binaries/ttyhandle_out.o
 .note.GNU-stack
                0x0000000000000000        0x0 binaries/ttyhandler.o
 .note.GNU-stack
                0x0000000000000000        0x0 binaries/ttyinit.o
 .note.GNU-stack
                0x0000000000000000        0x0 binaries/ttykickout.o
 .note.GNU-stack
                0x0000000000000000        0x0 binaries/ttyputc.o
 .note.GNU-stack
                0x0000000000000000        0x0 binaries/ttyread.o
 .note.GNU-stack
                0x0000000000000000        0x0 binaries/ttywrite.o
 .note.GNU-stack
                0x0000000000000000        0x0 binaries/mount.o
 .note.GNU-stack
                0x0000000000000000        0x0 binaries/naminit.o
 .note.GNU-stack
                0x0000000000000000        0x0 binaries/nammap.o
 .note.GNU-stack
                0x0000000000000000        0x0 binaries/namopen.o
 .note.GNU-stack
                0x0000000000000000        0x0 binaries/colon2mac.o
 .note.GNU-stack
                0x0000000000000000        0x0 binaries/ethcontrol.o
 .note.GNU-stack
                0x0000000000000000        0x0 binaries/ethhandler.o
 .note.GNU-stack
                0x0000000000000000        0x0 binaries/ethinit.o
 .note.GNU-stack
                0x0000000000000000        0x0 binaries/ethmcast.o
 .note.GNU-stack
                0x0000000000000000        0x0 binaries/ethread.o
 .note.GNU-stack
                0x0000000000000000        0x0 binaries/ethwrite.o
 .note.GNU-stack
                0x0000000000000000        0x0 binaries/rdsbufalloc.o
 .note.GNU-stack
                0x0000000000000000        0x0 binaries/rdsclose.o
 .note.GNU-stack
                0x0000000000000000        0x0 binaries/rdscomm.o
 .note.GNU-stack
                0x0000000000000000        0x0 binaries/rdscontrol.o
 .note.GNU-stack
                0x0000000000000000        0x0 binaries/rdsinit.o
 .note.GNU-stack
                0x0000000000000000        0x0 binaries/rdsopen.o
 .note.GNU-stack
                0x0000000000000000        0x0 binaries/rdsprocess.o
 .note.GNU-stack
                0x0000000000000000        0x0 binaries/rdsread.o
 .note.GNU-stack
                0x0000000000000000        0x0 binaries/rdswrite.o
 .note.GNU-stack
                0x0000000000000000        0x0 binaries/ramclose.o
 .note.GNU-stack
                0x0000000000000000        0x0 binaries/raminit.o
 .note.GNU-stack
                0x0000000000000000        0x0 binaries/ramopen.o
 .note.GNU-stack
                0x0000000000000000        0x0 binaries/ramread.o
 .note.GNU-stack
                0x0000000000000000        0x0 binaries/ramwrite.o
 .note.GNU-stack
                0x0000000000000000        0x0 binaries/lfdballoc.o
 .note.GNU-stack
                0x0000000000000000        0x0 binaries/lfdbfree.o
 .note.GNU-stack
                0x0000000000000000        0x0 binaries/lfflush.o
 .note.GNU-stack
                0x0000000000000000        0x0 binaries/lfgetmode.o
 .note.GNU-stack
                0x0000000000000000        0x0 binaries/lfiballoc.o
 .note.GNU-stack
                0x0000000000000000        0x0 binaries/lfibclear.o
 .note.GNU-stack
                0x0000000000000000        0x0 binaries/lfibget.o
 .note.GNU-stack
                0x0000000000000000        0x0 binaries/lfibput.o
 .note.GNU-stack
                0x0000000000000000        0x0 binaries/lflclose.o
 .note.GNU-stack
                0x0000000000000000        0x0 binaries/lflcontrol.o
 .note.GNU-stack
                0x0000000000000000        0x0 binaries/lflgetc.o
 .note.GNU-stack
                0x0000000000000000        0x0 binaries/lflinit.o
 .note.GNU-stack
                0x0000000000000000        0x0 binaries/lflputc.o
 .note.GNU-stack
                0x0000000000000000        0x0 binaries/lflread.o
 .note.GNU-stack
                0x0000000000000000        0x0 binaries/lflseek.o
 .note.GNU-stack
                0x0000000000000000        0x0 binaries/lflwrite.o
 .note.GNU-stack
                0x0000000000000000        0x0 binaries/lfsckfmt.o
 .note.GNU-stack
                0x0000000000000000        0x0 binaries/lfscreate.o
 .note.GNU-stack
                0x0000000000000000        0x0 binaries/lfsetup.o
 .note.GNU-stack
                0x0000000000000000        0x0 binaries/lfsinit.o
 .note.GNU-stack
                0x0000000000000000        0x0 binaries/lfsopen.o
 .note.GNU-stack
                0x0000000000000000        0x0 binaries/lftruncate.o
 .note.GNU-stack
                0x0000000000000000        0x0 binaries/rflclose.o
 .note.GNU-stack
                0x0000000000000000        0x0 binaries/rflgetc.o
 .note.GNU-stack
                0x0000000000000000        0x0 binaries/rflinit.o
 .note.GNU-stack
                0x0000000000000000        0x0 binaries/rflputc.o
 .note.GNU-stack
                0x0000000000000000        0x0 binaries/rflread.o
 .note.GNU-stack
                0x0000000000000000        0x0 binaries/rflseek.o
 .note.GNU-stack
                0x0000000000000000        0x0 binaries/rflwrite.o
 .note.GNU-stack
                0x0000000000000000        0x0 binaries/rfscomm.o
 .note.GNU-stack
                0x0000000000000000        0x0 binaries/rfscontrol.o
 .note.GNU-stack
                0x0000000000000000        0x0 binaries/rfsgetmode.o
 .note.GNU-stack
                0x0000000000000000        0x0 binaries/rfsinit.o
 .note.GNU-stack
                0x0000000000000000        0x0 binaries/rfsndmsg.o
 .note.GNU-stack
                0x0000000000000000        0x0 binaries/rfsopen.o
 .note.GNU-stack
                0x0000000000000000        0x0 binaries/arp.o
 .note.GNU-stack
                0x0000000000000000        0x0 binaries/dhcp.o
 .note.GNU-stack
                0x0000000000000000        0x0 binaries/dot2ip.o
 .note.GNU-stack
                0x0000000000000000        0x0 binaries/hexdump.o
 .note.GNU-stack
                0x0000000000000000        0x0 binaries/icmp.o
 .note.GNU-stack
                0x0000000000000000        0x0 binaries/ip.o
 .note.GNU-stack
                0x0000000000000000        0x0 binaries/net.o
 .note.GNU-stack
                0x0000000000000000        0x0 binaries/netstart.o
 .note.GNU-stack
                0x0000000000000000        0x0 binaries/pdump.o
 .note.GNU-stack
                0x0000000000000000        0x0 binaries/tftp.o
 .note.GNU-stack
                0x0000000000000000        0x0 binaries/udp.o
 .note.GNU-stack
                0x0000000000000000        0x0 binaries/addargs.o
 .note.GNU-stack
                0x0000000000000000        0x0 binaries/lexan.o
 .note.GNU-stack
                0x0000000000000000        0x0 binaries/shell.o
 .note.GNU-stack
                0x0000000000000000        0x0 binaries/xsh_argecho.o
 .note.GNU-stack
                0x0000000000000000        0x0 binaries/xsh_arp.o
 .note.GNU-stack
                0x0000000000000000        0x0 binaries/xsh_cat.o
 .note.GNU-stack
                0x0000000000000000        0x0 binaries/xsh_clear.o
 .note.GNU-stack
                0x0000000000000000        0x0 binaries/xsh_date.o
 .note.GNU-stack
                0x0000000000000000        0x0 binaries/xsh_devdump.o
 .note.GNU-stack
                0x0000000000000000        0x0 binaries/xsh_echo.o
 .note.GNU-stack
                0x0000000000000000        0x0 binaries/xsh_exit.o
 .note.GNU-stack
                0x0000000000000000        0x0 binaries/xsh_help.o
 .note.GNU-stack
                0x0000000000000000        0x0 binaries/xsh_ipaddr.o
 .note.GNU-stack
                0x0000000000000000        0x0 binaries/xsh_kill.o
 .note.GNU-stack
                0x0000000000000000        0x0 binaries/xsh_memdump.o
 .note.GNU-stack
                0x0000000000000000        0x0 binaries/xsh_memstat.o
 .note.GNU-stack
                0x0000000000000000        0x0 binaries/xsh_ping.o
 .note.GNU-stack
                0x0000000000000000        0x0 binaries/xsh_poo.o
 .note.GNU-stack
                0x0000000000000000        0x0 binaries/xsh_ps.o
 .note.GNU-stack
                0x0000000000000000        0x0 binaries/xsh_rdstest.o
 .note.GNU-stack
                0x0000000000000000        0x0 binaries/xsh_sleep.o
 .note.GNU-stack
                0x0000000000000000        0x0 binaries/xsh_udpdump.o
 .note.GNU-stack
                0x0000000000000000        0x0 binaries/xsh_udpecho.o
 .note.GNU-stack
                0x0000000000000000        0x0 binaries/xsh_udpeserver.o
 .note.GNU-stack
                0x0000000000000000        0x0 binaries/xsh_uptime.o
